(idb.dbtext
DBText
p0
(dp1
S'maps'
p2
(dp3
S'lorilu'
p4
S'OOOOOOOOOO\nO        O\nO        O\nO        O\nO_       *\nO        O\nO        O\nO        O\nOOOOOOOOOO'
p5
sS'easy'
p6
S'OOOOOOOOOO\nO O    O O\nO . OO   O\nO O O    O\nO OOOO O.O\nO_O O    *\nO OOOOOO.O\nO O      O\nO O OOOOOO\nO . O    O\nOOOOOOOOOO\n'
p7
sS'prison'
p8
S'OOOOOOOOOOOOOOOOOOOO\nO_O . O    O .     O\nO.O O O    O O     O\nO O O O    O O     O\nO.O O .    O O     O\nO O O OOOOOO O     O\nO O O        O     O\nO O OOOOOOOOOO     O\nO.O .        O     O\nO O O        O     O\nO O O        O     O\nO O.O        O     O\nO.O .        O     O\nO O O        O     O\nO O O        O     O\nO O O        O     O\nO O O        O     O\nO.O O        O     O\nO   O        O     *\nOOOOOOOOOOOOOOOOOOOO\n'
p9
ssS'users'
p10
(dp11
S'Mari'
p12
(dp13
sS'Gab'
p14
(dp15
ssb.