(idb.dbtext
DBText
p0
(dp1
S'maps'
p2
(dp3
S'Maricota'
p4
S'OOOOOOOOOOOOOOOOOOOOOOOOOOOOOOOOOOOOOOOOO\nO_    O    .       O         .        . O\nOOOOO O OO.OO OOOO O.OOOO    O OOOOOO.O O\nO   O O O   O O  . O    OOOO.OOO    . O O\nO O O O OOO O O  OOOOOO O  O     OOOO O O\nO O . O   O O OO O .    O OOOOOOOO  O O O\nO OOO.OOO O O  O O OOOOOO.OOO .     . O O\nO  O    . O .  O O O  .       OOOOOOO . O\nO  O    OOO OOOO O O OO OOOOO .     OOOOO\nO OOOOO.O   OO O O O OO O . O OOOOO .   O\nO     O      O .   O .  O O O .     OOO O\nOOOOO OOOOOOOO OOOOO OOOO O O OOOOOOO O O\nO   O O    O       O O O  O O O  . .  O O\nO   O . OO OOOOOOO O O O  . O O  O O  O O\nO O O.OOOO O       O O O.OOOO OOOO.OOOO O\nO OOO O  . O O.OOOOO O      . .  O    . O\nO     O  O O O O     O.O.OOOO.OO O    O.O\nOOOOOOO  O O O O O   O O   O   O OOOOOO O\nO        O . O   OOOOO O OOOOO . O      O\nO   O.OOOO.O O.OOO  O  O  O O  O.OOOOOOOO\nO.OOO      O O      O OO  O O OO   O    O\nO   OOOOOOOO OOOOOO.O OOO O O.OOOO O O  *\nO          O        O .   O      O . OOOO\nOOOOOOOOOOOOOOOOOOOOOOOOOOOOOOOOOOOOOOOOO\n'
p5
sS'prison'
p6
S'OOOOOOOOOOOOOOOOOOOO\nO_O . O    O .     O\nO.O O O    O O     O\nO O O O    O O     O\nO.O O .    O O     O\nO O O OOOOOO O     O\nO O O        O     O\nO O OOOOOOOOOO     O\nO.O .        O     O\nO O O        O     O\nO O O        O     O\nO O.O        O     O\nO.O .        O     O\nO O O        O     O\nO O O        O     O\nO O O        O     O\nO O O        O     O\nO.O O        O     O\nO   O        O     *\nOOOOOOOOOOOOOOOOOOOO\n'
p7
sS'easy'
p8
S'OOOOOOOOOO\nO O    O O\nO . OO   O\nO O O    O\nO OOOO O.O\nO_O O    *\nO OOOOOO.O\nO O      O\nO O OOOOOO\nO . O    O\nOOOOOOOOOO\n'
p9
sS'empty'
p10
S'OOOOOOOOOOO\nO         O\nO         O\nO         O\nO         O\nO    _    O\nO         O\nO         O\nO         O\nO         *\nOOOOOOOOOOO\n'
p11
sS'lorilu'
p12
S'OOOOOOOOOO\nO        O\nO        O\nO        O\nO_       *\nO        O\nO        O\nO        O\nOOOOOOOOOO'
p13
ssS'users'
p14
(dp15
S'1'
p16
(dp17
sS'GAB'
p18
(dp19
S'Maricota'
p20
(igame
Game
p21
(dp22
S'_visible_map'
p23
(igame_map
GameMap
p24
(dp25
S'_robot'
p26
(imap.components.robot
Robot
p27
(dp28
S'_passable'
p29
I00
sS'_symbol'
p30
S'@'
p31
sS'_point'
p32
(imap.components.point
Point
p33
(dp34
S'y'
p35
I22
sS'x'
p36
I19
sbsbsS'_game_map'
p37
(lp38
(imap.components.wall
Wall
p39
(dp40
g29
I00
sg30
S'O'
p41
sg32
(imap.components.point
Point
p42
(dp43
g35
I0
sg36
I0
sbsba(imap.components.wall
Wall
p44
(dp45
g29
I00
sg30
g41
sg32
(imap.components.point
Point
p46
(dp47
g35
I0
sg36
I1
sbsba(imap.components.wall
Wall
p48
(dp49
g29
I00
sg30
g41
sg32
(imap.components.point
Point
p50
(dp51
g35
I0
sg36
I2
sbsba(imap.components.wall
Wall
p52
(dp53
g29
I00
sg30
g41
sg32
(imap.components.point
Point
p54
(dp55
g35
I0
sg36
I3
sbsba(imap.components.wall
Wall
p56
(dp57
g29
I00
sg30
g41
sg32
(imap.components.point
Point
p58
(dp59
g35
I0
sg36
I4
sbsba(imap.components.wall
Wall
p60
(dp61
g29
I00
sg30
g41
sg32
(imap.components.point
Point
p62
(dp63
g35
I0
sg36
I5
sbsba(imap.components.wall
Wall
p64
(dp65
g29
I00
sg30
g41
sg32
(imap.components.point
Point
p66
(dp67
g35
I0
sg36
I6
sbsba(imap.components.wall
Wall
p68
(dp69
g29
I00
sg30
g41
sg32
(imap.components.point
Point
p70
(dp71
g35
I0
sg36
I7
sbsba(imap.components.wall
Wall
p72
(dp73
g29
I00
sg30
g41
sg32
(imap.components.point
Point
p74
(dp75
g35
I0
sg36
I8
sbsba(imap.components.wall
Wall
p76
(dp77
g29
I00
sg30
g41
sg32
(imap.components.point
Point
p78
(dp79
g35
I0
sg36
I9
sbsba(imap.components.wall
Wall
p80
(dp81
g29
I00
sg30
g41
sg32
(imap.components.point
Point
p82
(dp83
g35
I0
sg36
I10
sbsba(imap.components.wall
Wall
p84
(dp85
g29
I00
sg30
g41
sg32
(imap.components.point
Point
p86
(dp87
g35
I0
sg36
I11
sbsba(imap.components.wall
Wall
p88
(dp89
g29
I00
sg30
g41
sg32
(imap.components.point
Point
p90
(dp91
g35
I0
sg36
I12
sbsba(imap.components.wall
Wall
p92
(dp93
g29
I00
sg30
g41
sg32
(imap.components.point
Point
p94
(dp95
g35
I0
sg36
I13
sbsba(imap.components.wall
Wall
p96
(dp97
g29
I00
sg30
g41
sg32
(imap.components.point
Point
p98
(dp99
g35
I0
sg36
I14
sbsba(imap.components.wall
Wall
p100
(dp101
g29
I00
sg30
g41
sg32
(imap.components.point
Point
p102
(dp103
g35
I0
sg36
I15
sbsba(imap.components.wall
Wall
p104
(dp105
g29
I00
sg30
g41
sg32
(imap.components.point
Point
p106
(dp107
g35
I0
sg36
I16
sbsba(imap.components.wall
Wall
p108
(dp109
g29
I00
sg30
g41
sg32
(imap.components.point
Point
p110
(dp111
g35
I0
sg36
I17
sbsba(imap.components.wall
Wall
p112
(dp113
g29
I00
sg30
g41
sg32
(imap.components.point
Point
p114
(dp115
g35
I0
sg36
I18
sbsba(imap.components.wall
Wall
p116
(dp117
g29
I00
sg30
g41
sg32
(imap.components.point
Point
p118
(dp119
g35
I0
sg36
I19
sbsba(imap.components.empty
Empty
p120
(dp121
g29
I00
sg30
S' '
p122
sg32
(imap.components.point
Point
p123
(dp124
g35
I0
sg36
I20
sbsba(imap.components.wall
Wall
p125
(dp126
g29
I00
sg30
g41
sg32
(imap.components.point
Point
p127
(dp128
g35
I1
sg36
I0
sbsba(imap.components.floor
Floor
p129
(dp130
g29
I01
sg30
S' '
p131
sg32
(imap.components.point
Point
p132
(dp133
g35
I1
sg36
I1
sbsba(imap.components.floor
Floor
p134
(dp135
g29
I01
sg30
g131
sg32
(imap.components.point
Point
p136
(dp137
g35
I1
sg36
I2
sbsba(imap.components.floor
Floor
p138
(dp139
g29
I01
sg30
g131
sg32
(imap.components.point
Point
p140
(dp141
g35
I1
sg36
I3
sbsba(imap.components.floor
Floor
p142
(dp143
g29
I01
sg30
g131
sg32
(imap.components.point
Point
p144
(dp145
g35
I1
sg36
I4
sbsba(imap.components.floor
Floor
p146
(dp147
g29
I01
sg30
g131
sg32
(imap.components.point
Point
p148
(dp149
g35
I1
sg36
I5
sbsba(imap.components.wall
Wall
p150
(dp151
g29
I00
sg30
g41
sg32
(imap.components.point
Point
p152
(dp153
g35
I1
sg36
I6
sbsba(imap.components.floor
Floor
p154
(dp155
g29
I01
sg30
g131
sg32
(imap.components.point
Point
p156
(dp157
g35
I1
sg36
I7
sbsba(imap.components.floor
Floor
p158
(dp159
g29
I01
sg30
g131
sg32
(imap.components.point
Point
p160
(dp161
g35
I1
sg36
I8
sbsba(imap.components.floor
Floor
p162
(dp163
g29
I01
sg30
g131
sg32
(imap.components.point
Point
p164
(dp165
g35
I1
sg36
I9
sbsba(imap.components.floor
Floor
p166
(dp167
g29
I01
sg30
g131
sg32
(imap.components.point
Point
p168
(dp169
g35
I1
sg36
I10
sbsba(imap.components.door
Door
p170
(dp171
g29
I01
sg30
S'.'
p172
sg32
(imap.components.point
Point
p173
(dp174
g35
I1
sg36
I11
sbsba(imap.components.floor
Floor
p175
(dp176
g29
I01
sg30
g131
sg32
(imap.components.point
Point
p177
(dp178
g35
I1
sg36
I12
sbsba(imap.components.floor
Floor
p179
(dp180
g29
I01
sg30
g131
sg32
(imap.components.point
Point
p181
(dp182
g35
I1
sg36
I13
sbsba(imap.components.floor
Floor
p183
(dp184
g29
I01
sg30
g131
sg32
(imap.components.point
Point
p185
(dp186
g35
I1
sg36
I14
sbsba(imap.components.floor
Floor
p187
(dp188
g29
I01
sg30
g131
sg32
(imap.components.point
Point
p189
(dp190
g35
I1
sg36
I15
sbsba(imap.components.floor
Floor
p191
(dp192
g29
I01
sg30
g131
sg32
(imap.components.point
Point
p193
(dp194
g35
I1
sg36
I16
sbsba(imap.components.floor
Floor
p195
(dp196
g29
I01
sg30
g131
sg32
(imap.components.point
Point
p197
(dp198
g35
I1
sg36
I17
sbsba(imap.components.floor
Floor
p199
(dp200
g29
I01
sg30
g131
sg32
(imap.components.point
Point
p201
(dp202
g35
I1
sg36
I18
sbsba(imap.components.wall
Wall
p203
(dp204
g29
I00
sg30
g41
sg32
(imap.components.point
Point
p205
(dp206
g35
I1
sg36
I19
sbsba(imap.components.empty
Empty
p207
(dp208
g29
I00
sg30
g122
sg32
(imap.components.point
Point
p209
(dp210
g35
I1
sg36
I20
sbsba(imap.components.wall
Wall
p211
(dp212
g29
I00
sg30
g41
sg32
(imap.components.point
Point
p213
(dp214
g35
I2
sg36
I0
sbsba(imap.components.wall
Wall
p215
(dp216
g29
I00
sg30
g41
sg32
(imap.components.point
Point
p217
(dp218
g35
I2
sg36
I1
sbsba(imap.components.wall
Wall
p219
(dp220
g29
I00
sg30
g41
sg32
(imap.components.point
Point
p221
(dp222
g35
I2
sg36
I2
sbsba(imap.components.wall
Wall
p223
(dp224
g29
I00
sg30
g41
sg32
(imap.components.point
Point
p225
(dp226
g35
I2
sg36
I3
sbsba(imap.components.wall
Wall
p227
(dp228
g29
I00
sg30
g41
sg32
(imap.components.point
Point
p229
(dp230
g35
I2
sg36
I4
sbsba(imap.components.floor
Floor
p231
(dp232
g29
I01
sg30
g131
sg32
(imap.components.point
Point
p233
(dp234
g35
I2
sg36
I5
sbsba(imap.components.wall
Wall
p235
(dp236
g29
I00
sg30
g41
sg32
(imap.components.point
Point
p237
(dp238
g35
I2
sg36
I6
sbsba(imap.components.floor
Floor
p239
(dp240
g29
I01
sg30
g131
sg32
(imap.components.point
Point
p241
(dp242
g35
I2
sg36
I7
sbsba(imap.components.wall
Wall
p243
(dp244
g29
I00
sg30
g41
sg32
(imap.components.point
Point
p245
(dp246
g35
I2
sg36
I8
sbsba(imap.components.wall
Wall
p247
(dp248
g29
I00
sg30
g41
sg32
(imap.components.point
Point
p249
(dp250
g35
I2
sg36
I9
sbsba(imap.components.door
Door
p251
(dp252
g29
I01
sg30
g172
sg32
(imap.components.point
Point
p253
(dp254
g35
I2
sg36
I10
sbsba(imap.components.wall
Wall
p255
(dp256
g29
I00
sg30
g41
sg32
(imap.components.point
Point
p257
(dp258
g35
I2
sg36
I11
sbsba(imap.components.wall
Wall
p259
(dp260
g29
I00
sg30
g41
sg32
(imap.components.point
Point
p261
(dp262
g35
I2
sg36
I12
sbsba(imap.components.floor
Floor
p263
(dp264
g29
I01
sg30
g131
sg32
(imap.components.point
Point
p265
(dp266
g35
I2
sg36
I13
sbsba(imap.components.wall
Wall
p267
(dp268
g29
I00
sg30
g41
sg32
(imap.components.point
Point
p269
(dp270
g35
I2
sg36
I14
sbsba(imap.components.wall
Wall
p271
(dp272
g29
I00
sg30
g41
sg32
(imap.components.point
Point
p273
(dp274
g35
I2
sg36
I15
sbsba(imap.components.wall
Wall
p275
(dp276
g29
I00
sg30
g41
sg32
(imap.components.point
Point
p277
(dp278
g35
I2
sg36
I16
sbsba(imap.components.wall
Wall
p279
(dp280
g29
I00
sg30
g41
sg32
(imap.components.point
Point
p281
(dp282
g35
I2
sg36
I17
sbsba(imap.components.floor
Floor
p283
(dp284
g29
I01
sg30
g131
sg32
(imap.components.point
Point
p285
(dp286
g35
I2
sg36
I18
sbsba(imap.components.wall
Wall
p287
(dp288
g29
I00
sg30
g41
sg32
(imap.components.point
Point
p289
(dp290
g35
I2
sg36
I19
sbsba(imap.components.empty
Empty
p291
(dp292
g29
I00
sg30
g122
sg32
(imap.components.point
Point
p293
(dp294
g35
I2
sg36
I20
sbsba(imap.components.empty
Empty
p295
(dp296
g29
I00
sg30
g122
sg32
(imap.components.point
Point
p297
(dp298
g35
I3
sg36
I0
sbsba(imap.components.empty
Empty
p299
(dp300
g29
I00
sg30
g122
sg32
(imap.components.point
Point
p301
(dp302
g35
I3
sg36
I1
sbsba(imap.components.empty
Empty
p303
(dp304
g29
I00
sg30
g122
sg32
(imap.components.point
Point
p305
(dp306
g35
I3
sg36
I2
sbsba(imap.components.empty
Empty
p307
(dp308
g29
I00
sg30
g122
sg32
(imap.components.point
Point
p309
(dp310
g35
I3
sg36
I3
sbsba(imap.components.wall
Wall
p311
(dp312
g29
I00
sg30
g41
sg32
(imap.components.point
Point
p313
(dp314
g35
I3
sg36
I4
sbsba(imap.components.floor
Floor
p315
(dp316
g29
I01
sg30
g131
sg32
(imap.components.point
Point
p317
(dp318
g35
I3
sg36
I5
sbsba(imap.components.wall
Wall
p319
(dp320
g29
I00
sg30
g41
sg32
(imap.components.point
Point
p321
(dp322
g35
I3
sg36
I6
sbsba(imap.components.floor
Floor
p323
(dp324
g29
I01
sg30
g131
sg32
(imap.components.point
Point
p325
(dp326
g35
I3
sg36
I7
sbsba(imap.components.wall
Wall
p327
(dp328
g29
I00
sg30
g41
sg32
(imap.components.point
Point
p329
(dp330
g35
I3
sg36
I8
sbsba(imap.components.floor
Floor
p331
(dp332
g29
I01
sg30
g131
sg32
(imap.components.point
Point
p333
(dp334
g35
I3
sg36
I9
sbsba(imap.components.floor
Floor
p335
(dp336
g29
I01
sg30
g131
sg32
(imap.components.point
Point
p337
(dp338
g35
I3
sg36
I10
sbsba(imap.components.floor
Floor
p339
(dp340
g29
I01
sg30
g131
sg32
(imap.components.point
Point
p341
(dp342
g35
I3
sg36
I11
sbsba(imap.components.wall
Wall
p343
(dp344
g29
I00
sg30
g41
sg32
(imap.components.point
Point
p345
(dp346
g35
I3
sg36
I12
sbsba(imap.components.floor
Floor
p347
(dp348
g29
I01
sg30
g131
sg32
(imap.components.point
Point
p349
(dp350
g35
I3
sg36
I13
sbsba(imap.components.wall
Wall
p351
(dp352
g29
I00
sg30
g41
sg32
(imap.components.point
Point
p353
(dp354
g35
I3
sg36
I14
sbsba(imap.components.floor
Floor
p355
(dp356
g29
I01
sg30
g131
sg32
(imap.components.point
Point
p357
(dp358
g35
I3
sg36
I15
sbsba(imap.components.floor
Floor
p359
(dp360
g29
I01
sg30
g131
sg32
(imap.components.point
Point
p361
(dp362
g35
I3
sg36
I16
sbsba(imap.components.door
Door
p363
(dp364
g29
I01
sg30
g172
sg32
(imap.components.point
Point
p365
(dp366
g35
I3
sg36
I17
sbsba(imap.components.floor
Floor
p367
(dp368
g29
I01
sg30
g131
sg32
(imap.components.point
Point
p369
(dp370
g35
I3
sg36
I18
sbsba(imap.components.wall
Wall
p371
(dp372
g29
I00
sg30
g41
sg32
(imap.components.point
Point
p373
(dp374
g35
I3
sg36
I19
sbsba(imap.components.empty
Empty
p375
(dp376
g29
I00
sg30
g122
sg32
(imap.components.point
Point
p377
(dp378
g35
I3
sg36
I20
sbsba(imap.components.empty
Empty
p379
(dp380
g29
I00
sg30
g122
sg32
(imap.components.point
Point
p381
(dp382
g35
I4
sg36
I0
sbsba(imap.components.empty
Empty
p383
(dp384
g29
I00
sg30
g122
sg32
(imap.components.point
Point
p385
(dp386
g35
I4
sg36
I1
sbsba(imap.components.empty
Empty
p387
(dp388
g29
I00
sg30
g122
sg32
(imap.components.point
Point
p389
(dp390
g35
I4
sg36
I2
sbsba(imap.components.empty
Empty
p391
(dp392
g29
I00
sg30
g122
sg32
(imap.components.point
Point
p393
(dp394
g35
I4
sg36
I3
sbsba(imap.components.wall
Wall
p395
(dp396
g29
I00
sg30
g41
sg32
(imap.components.point
Point
p397
(dp398
g35
I4
sg36
I4
sbsba(imap.components.floor
Floor
p399
(dp400
g29
I01
sg30
g131
sg32
(imap.components.point
Point
p401
(dp402
g35
I4
sg36
I5
sbsba(imap.components.wall
Wall
p403
(dp404
g29
I00
sg30
g41
sg32
(imap.components.point
Point
p405
(dp406
g35
I4
sg36
I6
sbsba(imap.components.floor
Floor
p407
(dp408
g29
I01
sg30
g131
sg32
(imap.components.point
Point
p409
(dp410
g35
I4
sg36
I7
sbsba(imap.components.wall
Wall
p411
(dp412
g29
I00
sg30
g41
sg32
(imap.components.point
Point
p413
(dp414
g35
I4
sg36
I8
sbsba(imap.components.wall
Wall
p415
(dp416
g29
I00
sg30
g41
sg32
(imap.components.point
Point
p417
(dp418
g35
I4
sg36
I9
sbsba(imap.components.wall
Wall
p419
(dp420
g29
I00
sg30
g41
sg32
(imap.components.point
Point
p421
(dp422
g35
I4
sg36
I10
sbsba(imap.components.floor
Floor
p423
(dp424
g29
I01
sg30
g131
sg32
(imap.components.point
Point
p425
(dp426
g35
I4
sg36
I11
sbsba(imap.components.wall
Wall
p427
(dp428
g29
I00
sg30
g41
sg32
(imap.components.point
Point
p429
(dp430
g35
I4
sg36
I12
sbsba(imap.components.floor
Floor
p431
(dp432
g29
I01
sg30
g131
sg32
(imap.components.point
Point
p433
(dp434
g35
I4
sg36
I13
sbsba(imap.components.wall
Wall
p435
(dp436
g29
I00
sg30
g41
sg32
(imap.components.point
Point
p437
(dp438
g35
I4
sg36
I14
sbsba(imap.components.floor
Floor
p439
(dp440
g29
I01
sg30
g131
sg32
(imap.components.point
Point
p441
(dp442
g35
I4
sg36
I15
sbsba(imap.components.floor
Floor
p443
(dp444
g29
I01
sg30
g131
sg32
(imap.components.point
Point
p445
(dp446
g35
I4
sg36
I16
sbsba(imap.components.wall
Wall
p447
(dp448
g29
I00
sg30
g41
sg32
(imap.components.point
Point
p449
(dp450
g35
I4
sg36
I17
sbsba(imap.components.wall
Wall
p451
(dp452
g29
I00
sg30
g41
sg32
(imap.components.point
Point
p453
(dp454
g35
I4
sg36
I18
sbsba(imap.components.wall
Wall
p455
(dp456
g29
I00
sg30
g41
sg32
(imap.components.point
Point
p457
(dp458
g35
I4
sg36
I19
sbsba(imap.components.empty
Empty
p459
(dp460
g29
I00
sg30
g122
sg32
(imap.components.point
Point
p461
(dp462
g35
I4
sg36
I20
sbsba(imap.components.empty
Empty
p463
(dp464
g29
I00
sg30
g122
sg32
(imap.components.point
Point
p465
(dp466
g35
I5
sg36
I0
sbsba(imap.components.empty
Empty
p467
(dp468
g29
I00
sg30
g122
sg32
(imap.components.point
Point
p469
(dp470
g35
I5
sg36
I1
sbsba(imap.components.empty
Empty
p471
(dp472
g29
I00
sg30
g122
sg32
(imap.components.point
Point
p473
(dp474
g35
I5
sg36
I2
sbsba(imap.components.empty
Empty
p475
(dp476
g29
I00
sg30
g122
sg32
(imap.components.point
Point
p477
(dp478
g35
I5
sg36
I3
sbsba(imap.components.door
Door
p479
(dp480
g29
I01
sg30
g172
sg32
(imap.components.point
Point
p481
(dp482
g35
I5
sg36
I4
sbsba(imap.components.floor
Floor
p483
(dp484
g29
I01
sg30
g131
sg32
(imap.components.point
Point
p485
(dp486
g35
I5
sg36
I5
sbsba(imap.components.wall
Wall
p487
(dp488
g29
I00
sg30
g41
sg32
(imap.components.point
Point
p489
(dp490
g35
I5
sg36
I6
sbsba(imap.components.floor
Floor
p491
(dp492
g29
I01
sg30
g131
sg32
(imap.components.point
Point
p493
(dp494
g35
I5
sg36
I7
sbsba(imap.components.floor
Floor
p495
(dp496
g29
I01
sg30
g131
sg32
(imap.components.point
Point
p497
(dp498
g35
I5
sg36
I8
sbsba(imap.components.floor
Floor
p499
(dp500
g29
I01
sg30
g131
sg32
(imap.components.point
Point
p501
(dp502
g35
I5
sg36
I9
sbsba(imap.components.wall
Wall
p503
(dp504
g29
I00
sg30
g41
sg32
(imap.components.point
Point
p505
(dp506
g35
I5
sg36
I10
sbsba(imap.components.floor
Floor
p507
(dp508
g29
I01
sg30
g131
sg32
(imap.components.point
Point
p509
(dp510
g35
I5
sg36
I11
sbsba(imap.components.wall
Wall
p511
(dp512
g29
I00
sg30
g41
sg32
(imap.components.point
Point
p513
(dp514
g35
I5
sg36
I12
sbsba(imap.components.floor
Floor
p515
(dp516
g29
I01
sg30
g131
sg32
(imap.components.point
Point
p517
(dp518
g35
I5
sg36
I13
sbsba(imap.components.wall
Wall
p519
(dp520
g29
I00
sg30
g41
sg32
(imap.components.point
Point
p521
(dp522
g35
I5
sg36
I14
sbsba(imap.components.wall
Wall
p523
(dp524
g29
I00
sg30
g41
sg32
(imap.components.point
Point
p525
(dp526
g35
I5
sg36
I15
sbsba(imap.components.floor
Floor
p527
(dp528
g29
I01
sg30
g131
sg32
(imap.components.point
Point
p529
(dp530
g35
I5
sg36
I16
sbsba(imap.components.wall
Wall
p531
(dp532
g29
I00
sg30
g41
sg32
(imap.components.point
Point
p533
(dp534
g35
I5
sg36
I17
sbsba(imap.components.floor
Floor
p535
(dp536
g29
I01
sg30
g131
sg32
(imap.components.point
Point
p537
(dp538
g35
I5
sg36
I18
sbsba(imap.components.door
Door
p539
(dp540
g29
I01
sg30
g172
sg32
(imap.components.point
Point
p541
(dp542
g35
I5
sg36
I19
sbsba(imap.components.empty
Empty
p543
(dp544
g29
I00
sg30
g122
sg32
(imap.components.point
Point
p545
(dp546
g35
I5
sg36
I20
sbsba(imap.components.empty
Empty
p547
(dp548
g29
I00
sg30
g122
sg32
(imap.components.point
Point
p549
(dp550
g35
I6
sg36
I0
sbsba(imap.components.empty
Empty
p551
(dp552
g29
I00
sg30
g122
sg32
(imap.components.point
Point
p553
(dp554
g35
I6
sg36
I1
sbsba(imap.components.empty
Empty
p555
(dp556
g29
I00
sg30
g122
sg32
(imap.components.point
Point
p557
(dp558
g35
I6
sg36
I2
sbsba(imap.components.wall
Wall
p559
(dp560
g29
I00
sg30
g41
sg32
(imap.components.point
Point
p561
(dp562
g35
I6
sg36
I3
sbsba(imap.components.wall
Wall
p563
(dp564
g29
I00
sg30
g41
sg32
(imap.components.point
Point
p565
(dp566
g35
I6
sg36
I4
sbsba(imap.components.door
Door
p567
(dp568
g29
I01
sg30
g172
sg32
(imap.components.point
Point
p569
(dp570
g35
I6
sg36
I5
sbsba(imap.components.wall
Wall
p571
(dp572
g29
I00
sg30
g41
sg32
(imap.components.point
Point
p573
(dp574
g35
I6
sg36
I6
sbsba(imap.components.wall
Wall
p575
(dp576
g29
I00
sg30
g41
sg32
(imap.components.point
Point
p577
(dp578
g35
I6
sg36
I7
sbsba(imap.components.wall
Wall
p579
(dp580
g29
I00
sg30
g41
sg32
(imap.components.point
Point
p581
(dp582
g35
I6
sg36
I8
sbsba(imap.components.floor
Floor
p583
(dp584
g29
I01
sg30
g131
sg32
(imap.components.point
Point
p585
(dp586
g35
I6
sg36
I9
sbsba(imap.components.wall
Wall
p587
(dp588
g29
I00
sg30
g41
sg32
(imap.components.point
Point
p589
(dp590
g35
I6
sg36
I10
sbsba(imap.components.floor
Floor
p591
(dp592
g29
I01
sg30
g131
sg32
(imap.components.point
Point
p593
(dp594
g35
I6
sg36
I11
sbsba(imap.components.wall
Wall
p595
(dp596
g29
I00
sg30
g41
sg32
(imap.components.point
Point
p597
(dp598
g35
I6
sg36
I12
sbsba(imap.components.floor
Floor
p599
(dp600
g29
I01
sg30
g131
sg32
(imap.components.point
Point
p601
(dp602
g35
I6
sg36
I13
sbsba(imap.components.floor
Floor
p603
(dp604
g29
I01
sg30
g131
sg32
(imap.components.point
Point
p605
(dp606
g35
I6
sg36
I14
sbsba(imap.components.wall
Wall
p607
(dp608
g29
I00
sg30
g41
sg32
(imap.components.point
Point
p609
(dp610
g35
I6
sg36
I15
sbsba(imap.components.floor
Floor
p611
(dp612
g29
I01
sg30
g131
sg32
(imap.components.point
Point
p613
(dp614
g35
I6
sg36
I16
sbsba(imap.components.wall
Wall
p615
(dp616
g29
I00
sg30
g41
sg32
(imap.components.point
Point
p617
(dp618
g35
I6
sg36
I17
sbsba(imap.components.floor
Floor
p619
(dp620
g29
I01
sg30
g131
sg32
(imap.components.point
Point
p621
(dp622
g35
I6
sg36
I18
sbsba(imap.components.wall
Wall
p623
(dp624
g29
I00
sg30
g41
sg32
(imap.components.point
Point
p625
(dp626
g35
I6
sg36
I19
sbsba(imap.components.empty
Empty
p627
(dp628
g29
I00
sg30
g122
sg32
(imap.components.point
Point
p629
(dp630
g35
I6
sg36
I20
sbsba(imap.components.empty
Empty
p631
(dp632
g29
I00
sg30
g122
sg32
(imap.components.point
Point
p633
(dp634
g35
I7
sg36
I0
sbsba(imap.components.empty
Empty
p635
(dp636
g29
I00
sg30
g122
sg32
(imap.components.point
Point
p637
(dp638
g35
I7
sg36
I1
sbsba(imap.components.empty
Empty
p639
(dp640
g29
I00
sg30
g122
sg32
(imap.components.point
Point
p641
(dp642
g35
I7
sg36
I2
sbsba(imap.components.wall
Wall
p643
(dp644
g29
I00
sg30
g41
sg32
(imap.components.point
Point
p645
(dp646
g35
I7
sg36
I3
sbsba(imap.components.floor
Floor
p647
(dp648
g29
I01
sg30
g131
sg32
(imap.components.point
Point
p649
(dp650
g35
I7
sg36
I4
sbsba(imap.components.floor
Floor
p651
(dp652
g29
I01
sg30
g131
sg32
(imap.components.point
Point
p653
(dp654
g35
I7
sg36
I5
sbsba(imap.components.floor
Floor
p655
(dp656
g29
I01
sg30
g131
sg32
(imap.components.point
Point
p657
(dp658
g35
I7
sg36
I6
sbsba(imap.components.floor
Floor
p659
(dp660
g29
I01
sg30
g131
sg32
(imap.components.point
Point
p661
(dp662
g35
I7
sg36
I7
sbsba(imap.components.door
Door
p663
(dp664
g29
I01
sg30
g172
sg32
(imap.components.point
Point
p665
(dp666
g35
I7
sg36
I8
sbsba(imap.components.floor
Floor
p667
(dp668
g29
I01
sg30
g131
sg32
(imap.components.point
Point
p669
(dp670
g35
I7
sg36
I9
sbsba(imap.components.wall
Wall
p671
(dp672
g29
I00
sg30
g41
sg32
(imap.components.point
Point
p673
(dp674
g35
I7
sg36
I10
sbsba(imap.components.floor
Floor
p675
(dp676
g29
I01
sg30
g131
sg32
(imap.components.point
Point
p677
(dp678
g35
I7
sg36
I11
sbsba(imap.components.door
Door
p679
(dp680
g29
I01
sg30
g172
sg32
(imap.components.point
Point
p681
(dp682
g35
I7
sg36
I12
sbsba(imap.components.floor
Floor
p683
(dp684
g29
I01
sg30
g131
sg32
(imap.components.point
Point
p685
(dp686
g35
I7
sg36
I13
sbsba(imap.components.floor
Floor
p687
(dp688
g29
I01
sg30
g131
sg32
(imap.components.point
Point
p689
(dp690
g35
I7
sg36
I14
sbsba(imap.components.wall
Wall
p691
(dp692
g29
I00
sg30
g41
sg32
(imap.components.point
Point
p693
(dp694
g35
I7
sg36
I15
sbsba(imap.components.floor
Floor
p695
(dp696
g29
I01
sg30
g131
sg32
(imap.components.point
Point
p697
(dp698
g35
I7
sg36
I16
sbsba(imap.components.wall
Wall
p699
(dp700
g29
I00
sg30
g41
sg32
(imap.components.point
Point
p701
(dp702
g35
I7
sg36
I17
sbsba(imap.components.floor
Floor
p703
(dp704
g29
I01
sg30
g131
sg32
(imap.components.point
Point
p705
(dp706
g35
I7
sg36
I18
sbsba(imap.components.wall
Wall
p707
(dp708
g29
I00
sg30
g41
sg32
(imap.components.point
Point
p709
(dp710
g35
I7
sg36
I19
sbsba(imap.components.empty
Empty
p711
(dp712
g29
I00
sg30
g122
sg32
(imap.components.point
Point
p713
(dp714
g35
I7
sg36
I20
sbsba(imap.components.empty
Empty
p715
(dp716
g29
I00
sg30
g122
sg32
(imap.components.point
Point
p717
(dp718
g35
I8
sg36
I0
sbsba(imap.components.empty
Empty
p719
(dp720
g29
I00
sg30
g122
sg32
(imap.components.point
Point
p721
(dp722
g35
I8
sg36
I1
sbsba(imap.components.empty
Empty
p723
(dp724
g29
I00
sg30
g122
sg32
(imap.components.point
Point
p725
(dp726
g35
I8
sg36
I2
sbsba(imap.components.wall
Wall
p727
(dp728
g29
I00
sg30
g41
sg32
(imap.components.point
Point
p729
(dp730
g35
I8
sg36
I3
sbsba(imap.components.floor
Floor
p731
(dp732
g29
I01
sg30
g131
sg32
(imap.components.point
Point
p733
(dp734
g35
I8
sg36
I4
sbsba(imap.components.floor
Floor
p735
(dp736
g29
I01
sg30
g131
sg32
(imap.components.point
Point
p737
(dp738
g35
I8
sg36
I5
sbsba(imap.components.floor
Floor
p739
(dp740
g29
I01
sg30
g131
sg32
(imap.components.point
Point
p741
(dp742
g35
I8
sg36
I6
sbsba(imap.components.floor
Floor
p743
(dp744
g29
I01
sg30
g131
sg32
(imap.components.point
Point
p745
(dp746
g35
I8
sg36
I7
sbsba(imap.components.wall
Wall
p747
(dp748
g29
I00
sg30
g41
sg32
(imap.components.point
Point
p749
(dp750
g35
I8
sg36
I8
sbsba(imap.components.wall
Wall
p751
(dp752
g29
I00
sg30
g41
sg32
(imap.components.point
Point
p753
(dp754
g35
I8
sg36
I9
sbsba(imap.components.wall
Wall
p755
(dp756
g29
I00
sg30
g41
sg32
(imap.components.point
Point
p757
(dp758
g35
I8
sg36
I10
sbsba(imap.components.floor
Floor
p759
(dp760
g29
I01
sg30
g131
sg32
(imap.components.point
Point
p761
(dp762
g35
I8
sg36
I11
sbsba(imap.components.wall
Wall
p763
(dp764
g29
I00
sg30
g41
sg32
(imap.components.point
Point
p765
(dp766
g35
I8
sg36
I12
sbsba(imap.components.wall
Wall
p767
(dp768
g29
I00
sg30
g41
sg32
(imap.components.point
Point
p769
(dp770
g35
I8
sg36
I13
sbsba(imap.components.wall
Wall
p771
(dp772
g29
I00
sg30
g41
sg32
(imap.components.point
Point
p773
(dp774
g35
I8
sg36
I14
sbsba(imap.components.wall
Wall
p775
(dp776
g29
I00
sg30
g41
sg32
(imap.components.point
Point
p777
(dp778
g35
I8
sg36
I15
sbsba(imap.components.floor
Floor
p779
(dp780
g29
I01
sg30
g131
sg32
(imap.components.point
Point
p781
(dp782
g35
I8
sg36
I16
sbsba(imap.components.wall
Wall
p783
(dp784
g29
I00
sg30
g41
sg32
(imap.components.point
Point
p785
(dp786
g35
I8
sg36
I17
sbsba(imap.components.floor
Floor
p787
(dp788
g29
I01
sg30
g131
sg32
(imap.components.point
Point
p789
(dp790
g35
I8
sg36
I18
sbsba(imap.components.wall
Wall
p791
(dp792
g29
I00
sg30
g41
sg32
(imap.components.point
Point
p793
(dp794
g35
I8
sg36
I19
sbsba(imap.components.empty
Empty
p795
(dp796
g29
I00
sg30
g122
sg32
(imap.components.point
Point
p797
(dp798
g35
I8
sg36
I20
sbsba(imap.components.empty
Empty
p799
(dp800
g29
I00
sg30
g122
sg32
(imap.components.point
Point
p801
(dp802
g35
I9
sg36
I0
sbsba(imap.components.empty
Empty
p803
(dp804
g29
I00
sg30
g122
sg32
(imap.components.point
Point
p805
(dp806
g35
I9
sg36
I1
sbsba(imap.components.empty
Empty
p807
(dp808
g29
I00
sg30
g122
sg32
(imap.components.point
Point
p809
(dp810
g35
I9
sg36
I2
sbsba(imap.components.empty
Empty
p811
(dp812
g29
I00
sg30
g122
sg32
(imap.components.point
Point
p813
(dp814
g35
I9
sg36
I3
sbsba(imap.components.wall
Wall
p815
(dp816
g29
I00
sg30
g41
sg32
(imap.components.point
Point
p817
(dp818
g35
I9
sg36
I4
sbsba(imap.components.wall
Wall
p819
(dp820
g29
I00
sg30
g41
sg32
(imap.components.point
Point
p821
(dp822
g35
I9
sg36
I5
sbsba(imap.components.wall
Wall
p823
(dp824
g29
I00
sg30
g41
sg32
(imap.components.point
Point
p825
(dp826
g35
I9
sg36
I6
sbsba(imap.components.door
Door
p827
(dp828
g29
I01
sg30
g172
sg32
(imap.components.point
Point
p829
(dp830
g35
I9
sg36
I7
sbsba(imap.components.wall
Wall
p831
(dp832
g29
I00
sg30
g41
sg32
(imap.components.point
Point
p833
(dp834
g35
I9
sg36
I8
sbsba(imap.components.floor
Floor
p835
(dp836
g29
I01
sg30
g131
sg32
(imap.components.point
Point
p837
(dp838
g35
I9
sg36
I9
sbsba(imap.components.floor
Floor
p839
(dp840
g29
I01
sg30
g131
sg32
(imap.components.point
Point
p841
(dp842
g35
I9
sg36
I10
sbsba(imap.components.floor
Floor
p843
(dp844
g29
I01
sg30
g131
sg32
(imap.components.point
Point
p845
(dp846
g35
I9
sg36
I11
sbsba(imap.components.wall
Wall
p847
(dp848
g29
I00
sg30
g41
sg32
(imap.components.point
Point
p849
(dp850
g35
I9
sg36
I12
sbsba(imap.components.wall
Wall
p851
(dp852
g29
I00
sg30
g41
sg32
(imap.components.point
Point
p853
(dp854
g35
I9
sg36
I13
sbsba(imap.components.floor
Floor
p855
(dp856
g29
I01
sg30
g131
sg32
(imap.components.point
Point
p857
(dp858
g35
I9
sg36
I14
sbsba(imap.components.wall
Wall
p859
(dp860
g29
I00
sg30
g41
sg32
(imap.components.point
Point
p861
(dp862
g35
I9
sg36
I15
sbsba(imap.components.floor
Floor
p863
(dp864
g29
I01
sg30
g131
sg32
(imap.components.point
Point
p865
(dp866
g35
I9
sg36
I16
sbsba(imap.components.wall
Wall
p867
(dp868
g29
I00
sg30
g41
sg32
(imap.components.point
Point
p869
(dp870
g35
I9
sg36
I17
sbsba(imap.components.floor
Floor
p871
(dp872
g29
I01
sg30
g131
sg32
(imap.components.point
Point
p873
(dp874
g35
I9
sg36
I18
sbsba(imap.components.wall
Wall
p875
(dp876
g29
I00
sg30
g41
sg32
(imap.components.point
Point
p877
(dp878
g35
I9
sg36
I19
sbsba(imap.components.empty
Empty
p879
(dp880
g29
I00
sg30
g122
sg32
(imap.components.point
Point
p881
(dp882
g35
I9
sg36
I20
sbsba(imap.components.empty
Empty
p883
(dp884
g29
I00
sg30
g122
sg32
(imap.components.point
Point
p885
(dp886
g35
I10
sg36
I0
sbsba(imap.components.empty
Empty
p887
(dp888
g29
I00
sg30
g122
sg32
(imap.components.point
Point
p889
(dp890
g35
I10
sg36
I1
sbsba(imap.components.empty
Empty
p891
(dp892
g29
I00
sg30
g122
sg32
(imap.components.point
Point
p893
(dp894
g35
I10
sg36
I2
sbsba(imap.components.empty
Empty
p895
(dp896
g29
I00
sg30
g122
sg32
(imap.components.point
Point
p897
(dp898
g35
I10
sg36
I3
sbsba(imap.components.empty
Empty
p899
(dp900
g29
I00
sg30
g122
sg32
(imap.components.point
Point
p901
(dp902
g35
I10
sg36
I4
sbsba(imap.components.empty
Empty
p903
(dp904
g29
I00
sg30
g122
sg32
(imap.components.point
Point
p905
(dp906
g35
I10
sg36
I5
sbsba(imap.components.wall
Wall
p907
(dp908
g29
I00
sg30
g41
sg32
(imap.components.point
Point
p909
(dp910
g35
I10
sg36
I6
sbsba(imap.components.floor
Floor
p911
(dp912
g29
I01
sg30
g131
sg32
(imap.components.point
Point
p913
(dp914
g35
I10
sg36
I7
sbsba(imap.components.floor
Floor
p915
(dp916
g29
I01
sg30
g131
sg32
(imap.components.point
Point
p917
(dp918
g35
I10
sg36
I8
sbsba(imap.components.floor
Floor
p919
(dp920
g29
I01
sg30
g131
sg32
(imap.components.point
Point
p921
(dp922
g35
I10
sg36
I9
sbsba(imap.components.floor
Floor
p923
(dp924
g29
I01
sg30
g131
sg32
(imap.components.point
Point
p925
(dp926
g35
I10
sg36
I10
sbsba(imap.components.floor
Floor
p927
(dp928
g29
I01
sg30
g131
sg32
(imap.components.point
Point
p929
(dp930
g35
I10
sg36
I11
sbsba(imap.components.floor
Floor
p931
(dp932
g29
I01
sg30
g131
sg32
(imap.components.point
Point
p933
(dp934
g35
I10
sg36
I12
sbsba(imap.components.wall
Wall
p935
(dp936
g29
I00
sg30
g41
sg32
(imap.components.point
Point
p937
(dp938
g35
I10
sg36
I13
sbsba(imap.components.floor
Floor
p939
(dp940
g29
I01
sg30
g131
sg32
(imap.components.point
Point
p941
(dp942
g35
I10
sg36
I14
sbsba(imap.components.door
Door
p943
(dp944
g29
I01
sg30
g172
sg32
(imap.components.point
Point
p945
(dp946
g35
I10
sg36
I15
sbsba(imap.components.floor
Floor
p947
(dp948
g29
I01
sg30
g131
sg32
(imap.components.point
Point
p949
(dp950
g35
I10
sg36
I16
sbsba(imap.components.floor
Floor
p951
(dp952
g29
I01
sg30
g131
sg32
(imap.components.point
Point
p953
(dp954
g35
I10
sg36
I17
sbsba(imap.components.floor
Floor
p955
(dp956
g29
I01
sg30
g131
sg32
(imap.components.point
Point
p957
(dp958
g35
I10
sg36
I18
sbsba(imap.components.wall
Wall
p959
(dp960
g29
I00
sg30
g41
sg32
(imap.components.point
Point
p961
(dp962
g35
I10
sg36
I19
sbsba(imap.components.empty
Empty
p963
(dp964
g29
I00
sg30
g122
sg32
(imap.components.point
Point
p965
(dp966
g35
I10
sg36
I20
sbsba(imap.components.empty
Empty
p967
(dp968
g29
I00
sg30
g122
sg32
(imap.components.point
Point
p969
(dp970
g35
I11
sg36
I0
sbsba(imap.components.empty
Empty
p971
(dp972
g29
I00
sg30
g122
sg32
(imap.components.point
Point
p973
(dp974
g35
I11
sg36
I1
sbsba(imap.components.empty
Empty
p975
(dp976
g29
I00
sg30
g122
sg32
(imap.components.point
Point
p977
(dp978
g35
I11
sg36
I2
sbsba(imap.components.empty
Empty
p979
(dp980
g29
I00
sg30
g122
sg32
(imap.components.point
Point
p981
(dp982
g35
I11
sg36
I3
sbsba(imap.components.empty
Empty
p983
(dp984
g29
I00
sg30
g122
sg32
(imap.components.point
Point
p985
(dp986
g35
I11
sg36
I4
sbsba(imap.components.empty
Empty
p987
(dp988
g29
I00
sg30
g122
sg32
(imap.components.point
Point
p989
(dp990
g35
I11
sg36
I5
sbsba(imap.components.wall
Wall
p991
(dp992
g29
I00
sg30
g41
sg32
(imap.components.point
Point
p993
(dp994
g35
I11
sg36
I6
sbsba(imap.components.wall
Wall
p995
(dp996
g29
I00
sg30
g41
sg32
(imap.components.point
Point
p997
(dp998
g35
I11
sg36
I7
sbsba(imap.components.wall
Wall
p999
(dp1000
g29
I00
sg30
g41
sg32
(imap.components.point
Point
p1001
(dp1002
g35
I11
sg36
I8
sbsba(imap.components.wall
Wall
p1003
(dp1004
g29
I00
sg30
g41
sg32
(imap.components.point
Point
p1005
(dp1006
g35
I11
sg36
I9
sbsba(imap.components.wall
Wall
p1007
(dp1008
g29
I00
sg30
g41
sg32
(imap.components.point
Point
p1009
(dp1010
g35
I11
sg36
I10
sbsba(imap.components.wall
Wall
p1011
(dp1012
g29
I00
sg30
g41
sg32
(imap.components.point
Point
p1013
(dp1014
g35
I11
sg36
I11
sbsba(imap.components.wall
Wall
p1015
(dp1016
g29
I00
sg30
g41
sg32
(imap.components.point
Point
p1017
(dp1018
g35
I11
sg36
I12
sbsba(imap.components.wall
Wall
p1019
(dp1020
g29
I00
sg30
g41
sg32
(imap.components.point
Point
p1021
(dp1022
g35
I11
sg36
I13
sbsba(imap.components.floor
Floor
p1023
(dp1024
g29
I01
sg30
g131
sg32
(imap.components.point
Point
p1025
(dp1026
g35
I11
sg36
I14
sbsba(imap.components.wall
Wall
p1027
(dp1028
g29
I00
sg30
g41
sg32
(imap.components.point
Point
p1029
(dp1030
g35
I11
sg36
I15
sbsba(imap.components.wall
Wall
p1031
(dp1032
g29
I00
sg30
g41
sg32
(imap.components.point
Point
p1033
(dp1034
g35
I11
sg36
I16
sbsba(imap.components.wall
Wall
p1035
(dp1036
g29
I00
sg30
g41
sg32
(imap.components.point
Point
p1037
(dp1038
g35
I11
sg36
I17
sbsba(imap.components.wall
Wall
p1039
(dp1040
g29
I00
sg30
g41
sg32
(imap.components.point
Point
p1041
(dp1042
g35
I11
sg36
I18
sbsba(imap.components.wall
Wall
p1043
(dp1044
g29
I00
sg30
g41
sg32
(imap.components.point
Point
p1045
(dp1046
g35
I11
sg36
I19
sbsba(imap.components.empty
Empty
p1047
(dp1048
g29
I00
sg30
g122
sg32
(imap.components.point
Point
p1049
(dp1050
g35
I11
sg36
I20
sbsba(imap.components.empty
Empty
p1051
(dp1052
g29
I00
sg30
g122
sg32
(imap.components.point
Point
p1053
(dp1054
g35
I12
sg36
I0
sbsba(imap.components.empty
Empty
p1055
(dp1056
g29
I00
sg30
g122
sg32
(imap.components.point
Point
p1057
(dp1058
g35
I12
sg36
I1
sbsba(imap.components.empty
Empty
p1059
(dp1060
g29
I00
sg30
g122
sg32
(imap.components.point
Point
p1061
(dp1062
g35
I12
sg36
I2
sbsba(imap.components.empty
Empty
p1063
(dp1064
g29
I00
sg30
g122
sg32
(imap.components.point
Point
p1065
(dp1066
g35
I12
sg36
I3
sbsba(imap.components.empty
Empty
p1067
(dp1068
g29
I00
sg30
g122
sg32
(imap.components.point
Point
p1069
(dp1070
g35
I12
sg36
I4
sbsba(imap.components.empty
Empty
p1071
(dp1072
g29
I00
sg30
g122
sg32
(imap.components.point
Point
p1073
(dp1074
g35
I12
sg36
I5
sbsba(imap.components.wall
Wall
p1075
(dp1076
g29
I00
sg30
g41
sg32
(imap.components.point
Point
p1077
(dp1078
g35
I12
sg36
I6
sbsba(imap.components.floor
Floor
p1079
(dp1080
g29
I01
sg30
g131
sg32
(imap.components.point
Point
p1081
(dp1082
g35
I12
sg36
I7
sbsba(imap.components.floor
Floor
p1083
(dp1084
g29
I01
sg30
g131
sg32
(imap.components.point
Point
p1085
(dp1086
g35
I12
sg36
I8
sbsba(imap.components.floor
Floor
p1087
(dp1088
g29
I01
sg30
g131
sg32
(imap.components.point
Point
p1089
(dp1090
g35
I12
sg36
I9
sbsba(imap.components.floor
Floor
p1091
(dp1092
g29
I01
sg30
g131
sg32
(imap.components.point
Point
p1093
(dp1094
g35
I12
sg36
I10
sbsba(imap.components.wall
Wall
p1095
(dp1096
g29
I00
sg30
g41
sg32
(imap.components.point
Point
p1097
(dp1098
g35
I12
sg36
I11
sbsba(imap.components.floor
Floor
p1099
(dp1100
g29
I01
sg30
g131
sg32
(imap.components.point
Point
p1101
(dp1102
g35
I12
sg36
I12
sbsba(imap.components.floor
Floor
p1103
(dp1104
g29
I01
sg30
g131
sg32
(imap.components.point
Point
p1105
(dp1106
g35
I12
sg36
I13
sbsba(imap.components.floor
Floor
p1107
(dp1108
g29
I01
sg30
g131
sg32
(imap.components.point
Point
p1109
(dp1110
g35
I12
sg36
I14
sbsba(imap.components.floor
Floor
p1111
(dp1112
g29
I01
sg30
g131
sg32
(imap.components.point
Point
p1113
(dp1114
g35
I12
sg36
I15
sbsba(imap.components.floor
Floor
p1115
(dp1116
g29
I01
sg30
g131
sg32
(imap.components.point
Point
p1117
(dp1118
g35
I12
sg36
I16
sbsba(imap.components.floor
Floor
p1119
(dp1120
g29
I01
sg30
g131
sg32
(imap.components.point
Point
p1121
(dp1122
g35
I12
sg36
I17
sbsba(imap.components.floor
Floor
p1123
(dp1124
g29
I01
sg30
g131
sg32
(imap.components.point
Point
p1125
(dp1126
g35
I12
sg36
I18
sbsba(imap.components.wall
Wall
p1127
(dp1128
g29
I00
sg30
g41
sg32
(imap.components.point
Point
p1129
(dp1130
g35
I12
sg36
I19
sbsba(imap.components.empty
Empty
p1131
(dp1132
g29
I00
sg30
g122
sg32
(imap.components.point
Point
p1133
(dp1134
g35
I12
sg36
I20
sbsba(imap.components.empty
Empty
p1135
(dp1136
g29
I00
sg30
g122
sg32
(imap.components.point
Point
p1137
(dp1138
g35
I13
sg36
I0
sbsba(imap.components.empty
Empty
p1139
(dp1140
g29
I00
sg30
g122
sg32
(imap.components.point
Point
p1141
(dp1142
g35
I13
sg36
I1
sbsba(imap.components.empty
Empty
p1143
(dp1144
g29
I00
sg30
g122
sg32
(imap.components.point
Point
p1145
(dp1146
g35
I13
sg36
I2
sbsba(imap.components.empty
Empty
p1147
(dp1148
g29
I00
sg30
g122
sg32
(imap.components.point
Point
p1149
(dp1150
g35
I13
sg36
I3
sbsba(imap.components.empty
Empty
p1151
(dp1152
g29
I00
sg30
g122
sg32
(imap.components.point
Point
p1153
(dp1154
g35
I13
sg36
I4
sbsba(imap.components.empty
Empty
p1155
(dp1156
g29
I00
sg30
g122
sg32
(imap.components.point
Point
p1157
(dp1158
g35
I13
sg36
I5
sbsba(imap.components.door
Door
p1159
(dp1160
g29
I01
sg30
g172
sg32
(imap.components.point
Point
p1161
(dp1162
g35
I13
sg36
I6
sbsba(imap.components.floor
Floor
p1163
(dp1164
g29
I01
sg30
g131
sg32
(imap.components.point
Point
p1165
(dp1166
g35
I13
sg36
I7
sbsba(imap.components.wall
Wall
p1167
(dp1168
g29
I00
sg30
g41
sg32
(imap.components.point
Point
p1169
(dp1170
g35
I13
sg36
I8
sbsba(imap.components.wall
Wall
p1171
(dp1172
g29
I00
sg30
g41
sg32
(imap.components.point
Point
p1173
(dp1174
g35
I13
sg36
I9
sbsba(imap.components.floor
Floor
p1175
(dp1176
g29
I01
sg30
g131
sg32
(imap.components.point
Point
p1177
(dp1178
g35
I13
sg36
I10
sbsba(imap.components.wall
Wall
p1179
(dp1180
g29
I00
sg30
g41
sg32
(imap.components.point
Point
p1181
(dp1182
g35
I13
sg36
I11
sbsba(imap.components.wall
Wall
p1183
(dp1184
g29
I00
sg30
g41
sg32
(imap.components.point
Point
p1185
(dp1186
g35
I13
sg36
I12
sbsba(imap.components.wall
Wall
p1187
(dp1188
g29
I00
sg30
g41
sg32
(imap.components.point
Point
p1189
(dp1190
g35
I13
sg36
I13
sbsba(imap.components.wall
Wall
p1191
(dp1192
g29
I00
sg30
g41
sg32
(imap.components.point
Point
p1193
(dp1194
g35
I13
sg36
I14
sbsba(imap.components.wall
Wall
p1195
(dp1196
g29
I00
sg30
g41
sg32
(imap.components.point
Point
p1197
(dp1198
g35
I13
sg36
I15
sbsba(imap.components.wall
Wall
p1199
(dp1200
g29
I00
sg30
g41
sg32
(imap.components.point
Point
p1201
(dp1202
g35
I13
sg36
I16
sbsba(imap.components.wall
Wall
p1203
(dp1204
g29
I00
sg30
g41
sg32
(imap.components.point
Point
p1205
(dp1206
g35
I13
sg36
I17
sbsba(imap.components.floor
Floor
p1207
(dp1208
g29
I01
sg30
g131
sg32
(imap.components.point
Point
p1209
(dp1210
g35
I13
sg36
I18
sbsba(imap.components.wall
Wall
p1211
(dp1212
g29
I00
sg30
g41
sg32
(imap.components.point
Point
p1213
(dp1214
g35
I13
sg36
I19
sbsba(imap.components.empty
Empty
p1215
(dp1216
g29
I00
sg30
g122
sg32
(imap.components.point
Point
p1217
(dp1218
g35
I13
sg36
I20
sbsba(imap.components.empty
Empty
p1219
(dp1220
g29
I00
sg30
g122
sg32
(imap.components.point
Point
p1221
(dp1222
g35
I14
sg36
I0
sbsba(imap.components.empty
Empty
p1223
(dp1224
g29
I00
sg30
g122
sg32
(imap.components.point
Point
p1225
(dp1226
g35
I14
sg36
I1
sbsba(imap.components.empty
Empty
p1227
(dp1228
g29
I00
sg30
g122
sg32
(imap.components.point
Point
p1229
(dp1230
g35
I14
sg36
I2
sbsba(imap.components.empty
Empty
p1231
(dp1232
g29
I00
sg30
g122
sg32
(imap.components.point
Point
p1233
(dp1234
g35
I14
sg36
I3
sbsba(imap.components.empty
Empty
p1235
(dp1236
g29
I00
sg30
g122
sg32
(imap.components.point
Point
p1237
(dp1238
g35
I14
sg36
I4
sbsba(imap.components.empty
Empty
p1239
(dp1240
g29
I00
sg30
g122
sg32
(imap.components.point
Point
p1241
(dp1242
g35
I14
sg36
I5
sbsba(imap.components.wall
Wall
p1243
(dp1244
g29
I00
sg30
g41
sg32
(imap.components.point
Point
p1245
(dp1246
g35
I14
sg36
I6
sbsba(imap.components.wall
Wall
p1247
(dp1248
g29
I00
sg30
g41
sg32
(imap.components.point
Point
p1249
(dp1250
g35
I14
sg36
I7
sbsba(imap.components.wall
Wall
p1251
(dp1252
g29
I00
sg30
g41
sg32
(imap.components.point
Point
p1253
(dp1254
g35
I14
sg36
I8
sbsba(imap.components.wall
Wall
p1255
(dp1256
g29
I00
sg30
g41
sg32
(imap.components.point
Point
p1257
(dp1258
g35
I14
sg36
I9
sbsba(imap.components.floor
Floor
p1259
(dp1260
g29
I01
sg30
g131
sg32
(imap.components.point
Point
p1261
(dp1262
g35
I14
sg36
I10
sbsba(imap.components.wall
Wall
p1263
(dp1264
g29
I00
sg30
g41
sg32
(imap.components.point
Point
p1265
(dp1266
g35
I14
sg36
I11
sbsba(imap.components.floor
Floor
p1267
(dp1268
g29
I01
sg30
g131
sg32
(imap.components.point
Point
p1269
(dp1270
g35
I14
sg36
I12
sbsba(imap.components.floor
Floor
p1271
(dp1272
g29
I01
sg30
g131
sg32
(imap.components.point
Point
p1273
(dp1274
g35
I14
sg36
I13
sbsba(imap.components.floor
Floor
p1275
(dp1276
g29
I01
sg30
g131
sg32
(imap.components.point
Point
p1277
(dp1278
g35
I14
sg36
I14
sbsba(imap.components.floor
Floor
p1279
(dp1280
g29
I01
sg30
g131
sg32
(imap.components.point
Point
p1281
(dp1282
g35
I14
sg36
I15
sbsba(imap.components.floor
Floor
p1283
(dp1284
g29
I01
sg30
g131
sg32
(imap.components.point
Point
p1285
(dp1286
g35
I14
sg36
I16
sbsba(imap.components.floor
Floor
p1287
(dp1288
g29
I01
sg30
g131
sg32
(imap.components.point
Point
p1289
(dp1290
g35
I14
sg36
I17
sbsba(imap.components.floor
Floor
p1291
(dp1292
g29
I01
sg30
g131
sg32
(imap.components.point
Point
p1293
(dp1294
g35
I14
sg36
I18
sbsba(imap.components.wall
Wall
p1295
(dp1296
g29
I00
sg30
g41
sg32
(imap.components.point
Point
p1297
(dp1298
g35
I14
sg36
I19
sbsba(imap.components.empty
Empty
p1299
(dp1300
g29
I00
sg30
g122
sg32
(imap.components.point
Point
p1301
(dp1302
g35
I14
sg36
I20
sbsba(imap.components.empty
Empty
p1303
(dp1304
g29
I00
sg30
g122
sg32
(imap.components.point
Point
p1305
(dp1306
g35
I15
sg36
I0
sbsba(imap.components.empty
Empty
p1307
(dp1308
g29
I00
sg30
g122
sg32
(imap.components.point
Point
p1309
(dp1310
g35
I15
sg36
I1
sbsba(imap.components.empty
Empty
p1311
(dp1312
g29
I00
sg30
g122
sg32
(imap.components.point
Point
p1313
(dp1314
g35
I15
sg36
I2
sbsba(imap.components.empty
Empty
p1315
(dp1316
g29
I00
sg30
g122
sg32
(imap.components.point
Point
p1317
(dp1318
g35
I15
sg36
I3
sbsba(imap.components.empty
Empty
p1319
(dp1320
g29
I00
sg30
g122
sg32
(imap.components.point
Point
p1321
(dp1322
g35
I15
sg36
I4
sbsba(imap.components.empty
Empty
p1323
(dp1324
g29
I00
sg30
g122
sg32
(imap.components.point
Point
p1325
(dp1326
g35
I15
sg36
I5
sbsba(imap.components.wall
Wall
p1327
(dp1328
g29
I00
sg30
g41
sg32
(imap.components.point
Point
p1329
(dp1330
g35
I15
sg36
I6
sbsba(imap.components.floor
Floor
p1331
(dp1332
g29
I01
sg30
g131
sg32
(imap.components.point
Point
p1333
(dp1334
g35
I15
sg36
I7
sbsba(imap.components.floor
Floor
p1335
(dp1336
g29
I01
sg30
g131
sg32
(imap.components.point
Point
p1337
(dp1338
g35
I15
sg36
I8
sbsba(imap.components.door
Door
p1339
(dp1340
g29
I01
sg30
g172
sg32
(imap.components.point
Point
p1341
(dp1342
g35
I15
sg36
I9
sbsba(imap.components.floor
Floor
p1343
(dp1344
g29
I01
sg30
g131
sg32
(imap.components.point
Point
p1345
(dp1346
g35
I15
sg36
I10
sbsba(imap.components.wall
Wall
p1347
(dp1348
g29
I00
sg30
g41
sg32
(imap.components.point
Point
p1349
(dp1350
g35
I15
sg36
I11
sbsba(imap.components.floor
Floor
p1351
(dp1352
g29
I01
sg30
g131
sg32
(imap.components.point
Point
p1353
(dp1354
g35
I15
sg36
I12
sbsba(imap.components.wall
Wall
p1355
(dp1356
g29
I00
sg30
g41
sg32
(imap.components.point
Point
p1357
(dp1358
g35
I15
sg36
I13
sbsba(imap.components.door
Door
p1359
(dp1360
g29
I01
sg30
g172
sg32
(imap.components.point
Point
p1361
(dp1362
g35
I15
sg36
I14
sbsba(imap.components.wall
Wall
p1363
(dp1364
g29
I00
sg30
g41
sg32
(imap.components.point
Point
p1365
(dp1366
g35
I15
sg36
I15
sbsba(imap.components.wall
Wall
p1367
(dp1368
g29
I00
sg30
g41
sg32
(imap.components.point
Point
p1369
(dp1370
g35
I15
sg36
I16
sbsba(imap.components.wall
Wall
p1371
(dp1372
g29
I00
sg30
g41
sg32
(imap.components.point
Point
p1373
(dp1374
g35
I15
sg36
I17
sbsba(imap.components.wall
Wall
p1375
(dp1376
g29
I00
sg30
g41
sg32
(imap.components.point
Point
p1377
(dp1378
g35
I15
sg36
I18
sbsba(imap.components.wall
Wall
p1379
(dp1380
g29
I00
sg30
g41
sg32
(imap.components.point
Point
p1381
(dp1382
g35
I15
sg36
I19
sbsba(imap.components.empty
Empty
p1383
(dp1384
g29
I00
sg30
g122
sg32
(imap.components.point
Point
p1385
(dp1386
g35
I15
sg36
I20
sbsba(imap.components.empty
Empty
p1387
(dp1388
g29
I00
sg30
g122
sg32
(imap.components.point
Point
p1389
(dp1390
g35
I16
sg36
I0
sbsba(imap.components.empty
Empty
p1391
(dp1392
g29
I00
sg30
g122
sg32
(imap.components.point
Point
p1393
(dp1394
g35
I16
sg36
I1
sbsba(imap.components.empty
Empty
p1395
(dp1396
g29
I00
sg30
g122
sg32
(imap.components.point
Point
p1397
(dp1398
g35
I16
sg36
I2
sbsba(imap.components.empty
Empty
p1399
(dp1400
g29
I00
sg30
g122
sg32
(imap.components.point
Point
p1401
(dp1402
g35
I16
sg36
I3
sbsba(imap.components.empty
Empty
p1403
(dp1404
g29
I00
sg30
g122
sg32
(imap.components.point
Point
p1405
(dp1406
g35
I16
sg36
I4
sbsba(imap.components.empty
Empty
p1407
(dp1408
g29
I00
sg30
g122
sg32
(imap.components.point
Point
p1409
(dp1410
g35
I16
sg36
I5
sbsba(imap.components.wall
Wall
p1411
(dp1412
g29
I00
sg30
g41
sg32
(imap.components.point
Point
p1413
(dp1414
g35
I16
sg36
I6
sbsba(imap.components.floor
Floor
p1415
(dp1416
g29
I01
sg30
g131
sg32
(imap.components.point
Point
p1417
(dp1418
g35
I16
sg36
I7
sbsba(imap.components.floor
Floor
p1419
(dp1420
g29
I01
sg30
g131
sg32
(imap.components.point
Point
p1421
(dp1422
g35
I16
sg36
I8
sbsba(imap.components.wall
Wall
p1423
(dp1424
g29
I00
sg30
g41
sg32
(imap.components.point
Point
p1425
(dp1426
g35
I16
sg36
I9
sbsba(imap.components.floor
Floor
p1427
(dp1428
g29
I01
sg30
g131
sg32
(imap.components.point
Point
p1429
(dp1430
g35
I16
sg36
I10
sbsba(imap.components.wall
Wall
p1431
(dp1432
g29
I00
sg30
g41
sg32
(imap.components.point
Point
p1433
(dp1434
g35
I16
sg36
I11
sbsba(imap.components.floor
Floor
p1435
(dp1436
g29
I01
sg30
g131
sg32
(imap.components.point
Point
p1437
(dp1438
g35
I16
sg36
I12
sbsba(imap.components.wall
Wall
p1439
(dp1440
g29
I00
sg30
g41
sg32
(imap.components.point
Point
p1441
(dp1442
g35
I16
sg36
I13
sbsba(imap.components.empty
Empty
p1443
(dp1444
g29
I00
sg30
g122
sg32
(imap.components.point
Point
p1445
(dp1446
g35
I16
sg36
I14
sbsba(imap.components.empty
Empty
p1447
(dp1448
g29
I00
sg30
g122
sg32
(imap.components.point
Point
p1449
(dp1450
g35
I16
sg36
I15
sbsba(imap.components.empty
Empty
p1451
(dp1452
g29
I00
sg30
g122
sg32
(imap.components.point
Point
p1453
(dp1454
g35
I16
sg36
I16
sbsba(imap.components.empty
Empty
p1455
(dp1456
g29
I00
sg30
g122
sg32
(imap.components.point
Point
p1457
(dp1458
g35
I16
sg36
I17
sbsba(imap.components.empty
Empty
p1459
(dp1460
g29
I00
sg30
g122
sg32
(imap.components.point
Point
p1461
(dp1462
g35
I16
sg36
I18
sbsba(imap.components.empty
Empty
p1463
(dp1464
g29
I00
sg30
g122
sg32
(imap.components.point
Point
p1465
(dp1466
g35
I16
sg36
I19
sbsba(imap.components.empty
Empty
p1467
(dp1468
g29
I00
sg30
g122
sg32
(imap.components.point
Point
p1469
(dp1470
g35
I16
sg36
I20
sbsba(imap.components.wall
Wall
p1471
(dp1472
g29
I00
sg30
g41
sg32
(imap.components.point
Point
p1473
(dp1474
g35
I17
sg36
I0
sbsba(imap.components.wall
Wall
p1475
(dp1476
g29
I00
sg30
g41
sg32
(imap.components.point
Point
p1477
(dp1478
g35
I17
sg36
I1
sbsba(imap.components.wall
Wall
p1479
(dp1480
g29
I00
sg30
g41
sg32
(imap.components.point
Point
p1481
(dp1482
g35
I17
sg36
I2
sbsba(imap.components.wall
Wall
p1483
(dp1484
g29
I00
sg30
g41
sg32
(imap.components.point
Point
p1485
(dp1486
g35
I17
sg36
I3
sbsba(imap.components.wall
Wall
p1487
(dp1488
g29
I00
sg30
g41
sg32
(imap.components.point
Point
p1489
(dp1490
g35
I17
sg36
I4
sbsba(imap.components.wall
Wall
p1491
(dp1492
g29
I00
sg30
g41
sg32
(imap.components.point
Point
p1493
(dp1494
g35
I17
sg36
I5
sbsba(imap.components.wall
Wall
p1495
(dp1496
g29
I00
sg30
g41
sg32
(imap.components.point
Point
p1497
(dp1498
g35
I17
sg36
I6
sbsba(imap.components.floor
Floor
p1499
(dp1500
g29
I01
sg30
g131
sg32
(imap.components.point
Point
p1501
(dp1502
g35
I17
sg36
I7
sbsba(imap.components.floor
Floor
p1503
(dp1504
g29
I01
sg30
g131
sg32
(imap.components.point
Point
p1505
(dp1506
g35
I17
sg36
I8
sbsba(imap.components.wall
Wall
p1507
(dp1508
g29
I00
sg30
g41
sg32
(imap.components.point
Point
p1509
(dp1510
g35
I17
sg36
I9
sbsba(imap.components.floor
Floor
p1511
(dp1512
g29
I01
sg30
g131
sg32
(imap.components.point
Point
p1513
(dp1514
g35
I17
sg36
I10
sbsba(imap.components.wall
Wall
p1515
(dp1516
g29
I00
sg30
g41
sg32
(imap.components.point
Point
p1517
(dp1518
g35
I17
sg36
I11
sbsba(imap.components.floor
Floor
p1519
(dp1520
g29
I01
sg30
g131
sg32
(imap.components.point
Point
p1521
(dp1522
g35
I17
sg36
I12
sbsba(imap.components.wall
Wall
p1523
(dp1524
g29
I00
sg30
g41
sg32
(imap.components.point
Point
p1525
(dp1526
g35
I17
sg36
I13
sbsba(imap.components.empty
Empty
p1527
(dp1528
g29
I00
sg30
g122
sg32
(imap.components.point
Point
p1529
(dp1530
g35
I17
sg36
I14
sbsba(imap.components.empty
Empty
p1531
(dp1532
g29
I00
sg30
g122
sg32
(imap.components.point
Point
p1533
(dp1534
g35
I17
sg36
I15
sbsba(imap.components.empty
Empty
p1535
(dp1536
g29
I00
sg30
g122
sg32
(imap.components.point
Point
p1537
(dp1538
g35
I17
sg36
I16
sbsba(imap.components.empty
Empty
p1539
(dp1540
g29
I00
sg30
g122
sg32
(imap.components.point
Point
p1541
(dp1542
g35
I17
sg36
I17
sbsba(imap.components.empty
Empty
p1543
(dp1544
g29
I00
sg30
g122
sg32
(imap.components.point
Point
p1545
(dp1546
g35
I17
sg36
I18
sbsba(imap.components.empty
Empty
p1547
(dp1548
g29
I00
sg30
g122
sg32
(imap.components.point
Point
p1549
(dp1550
g35
I17
sg36
I19
sbsba(imap.components.empty
Empty
p1551
(dp1552
g29
I00
sg30
g122
sg32
(imap.components.point
Point
p1553
(dp1554
g35
I17
sg36
I20
sbsba(imap.components.wall
Wall
p1555
(dp1556
g29
I00
sg30
g41
sg32
(imap.components.point
Point
p1557
(dp1558
g35
I18
sg36
I0
sbsba(imap.components.floor
Floor
p1559
(dp1560
g29
I01
sg30
g131
sg32
(imap.components.point
Point
p1561
(dp1562
g35
I18
sg36
I1
sbsba(imap.components.floor
Floor
p1563
(dp1564
g29
I01
sg30
g131
sg32
(imap.components.point
Point
p1565
(dp1566
g35
I18
sg36
I2
sbsba(imap.components.floor
Floor
p1567
(dp1568
g29
I01
sg30
g131
sg32
(imap.components.point
Point
p1569
(dp1570
g35
I18
sg36
I3
sbsba(imap.components.floor
Floor
p1571
(dp1572
g29
I01
sg30
g131
sg32
(imap.components.point
Point
p1573
(dp1574
g35
I18
sg36
I4
sbsba(imap.components.floor
Floor
p1575
(dp1576
g29
I01
sg30
g131
sg32
(imap.components.point
Point
p1577
(dp1578
g35
I18
sg36
I5
sbsba(imap.components.floor
Floor
p1579
(dp1580
g29
I01
sg30
g131
sg32
(imap.components.point
Point
p1581
(dp1582
g35
I18
sg36
I6
sbsba(imap.components.floor
Floor
p1583
(dp1584
g29
I01
sg30
g131
sg32
(imap.components.point
Point
p1585
(dp1586
g35
I18
sg36
I7
sbsba(imap.components.floor
Floor
p1587
(dp1588
g29
I01
sg30
g131
sg32
(imap.components.point
Point
p1589
(dp1590
g35
I18
sg36
I8
sbsba(imap.components.wall
Wall
p1591
(dp1592
g29
I00
sg30
g41
sg32
(imap.components.point
Point
p1593
(dp1594
g35
I18
sg36
I9
sbsba(imap.components.floor
Floor
p1595
(dp1596
g29
I01
sg30
g131
sg32
(imap.components.point
Point
p1597
(dp1598
g35
I18
sg36
I10
sbsba(imap.components.door
Door
p1599
(dp1600
g29
I01
sg30
g172
sg32
(imap.components.point
Point
p1601
(dp1602
g35
I18
sg36
I11
sbsba(imap.components.floor
Floor
p1603
(dp1604
g29
I01
sg30
g131
sg32
(imap.components.point
Point
p1605
(dp1606
g35
I18
sg36
I12
sbsba(imap.components.wall
Wall
p1607
(dp1608
g29
I00
sg30
g41
sg32
(imap.components.point
Point
p1609
(dp1610
g35
I18
sg36
I13
sbsba(imap.components.empty
Empty
p1611
(dp1612
g29
I00
sg30
g122
sg32
(imap.components.point
Point
p1613
(dp1614
g35
I18
sg36
I14
sbsba(imap.components.empty
Empty
p1615
(dp1616
g29
I00
sg30
g122
sg32
(imap.components.point
Point
p1617
(dp1618
g35
I18
sg36
I15
sbsba(imap.components.empty
Empty
p1619
(dp1620
g29
I00
sg30
g122
sg32
(imap.components.point
Point
p1621
(dp1622
g35
I18
sg36
I16
sbsba(imap.components.empty
Empty
p1623
(dp1624
g29
I00
sg30
g122
sg32
(imap.components.point
Point
p1625
(dp1626
g35
I18
sg36
I17
sbsba(imap.components.empty
Empty
p1627
(dp1628
g29
I00
sg30
g122
sg32
(imap.components.point
Point
p1629
(dp1630
g35
I18
sg36
I18
sbsba(imap.components.empty
Empty
p1631
(dp1632
g29
I00
sg30
g122
sg32
(imap.components.point
Point
p1633
(dp1634
g35
I18
sg36
I19
sbsba(imap.components.empty
Empty
p1635
(dp1636
g29
I00
sg30
g122
sg32
(imap.components.point
Point
p1637
(dp1638
g35
I18
sg36
I20
sbsba(imap.components.wall
Wall
p1639
(dp1640
g29
I00
sg30
g41
sg32
(imap.components.point
Point
p1641
(dp1642
g35
I19
sg36
I0
sbsba(imap.components.floor
Floor
p1643
(dp1644
g29
I01
sg30
g131
sg32
(imap.components.point
Point
p1645
(dp1646
g35
I19
sg36
I1
sbsba(imap.components.floor
Floor
p1647
(dp1648
g29
I01
sg30
g131
sg32
(imap.components.point
Point
p1649
(dp1650
g35
I19
sg36
I2
sbsba(imap.components.floor
Floor
p1651
(dp1652
g29
I01
sg30
g131
sg32
(imap.components.point
Point
p1653
(dp1654
g35
I19
sg36
I3
sbsba(imap.components.wall
Wall
p1655
(dp1656
g29
I00
sg30
g41
sg32
(imap.components.point
Point
p1657
(dp1658
g35
I19
sg36
I4
sbsba(imap.components.door
Door
p1659
(dp1660
g29
I01
sg30
g172
sg32
(imap.components.point
Point
p1661
(dp1662
g35
I19
sg36
I5
sbsba(imap.components.wall
Wall
p1663
(dp1664
g29
I00
sg30
g41
sg32
(imap.components.point
Point
p1665
(dp1666
g35
I19
sg36
I6
sbsba(imap.components.wall
Wall
p1667
(dp1668
g29
I00
sg30
g41
sg32
(imap.components.point
Point
p1669
(dp1670
g35
I19
sg36
I7
sbsba(imap.components.wall
Wall
p1671
(dp1672
g29
I00
sg30
g41
sg32
(imap.components.point
Point
p1673
(dp1674
g35
I19
sg36
I8
sbsba(imap.components.wall
Wall
p1675
(dp1676
g29
I00
sg30
g41
sg32
(imap.components.point
Point
p1677
(dp1678
g35
I19
sg36
I9
sbsba(imap.components.door
Door
p1679
(dp1680
g29
I01
sg30
g172
sg32
(imap.components.point
Point
p1681
(dp1682
g35
I19
sg36
I10
sbsba(imap.components.wall
Wall
p1683
(dp1684
g29
I00
sg30
g41
sg32
(imap.components.point
Point
p1685
(dp1686
g35
I19
sg36
I11
sbsba(imap.components.floor
Floor
p1687
(dp1688
g29
I01
sg30
g131
sg32
(imap.components.point
Point
p1689
(dp1690
g35
I19
sg36
I12
sbsba(imap.components.wall
Wall
p1691
(dp1692
g29
I00
sg30
g41
sg32
(imap.components.point
Point
p1693
(dp1694
g35
I19
sg36
I13
sbsba(imap.components.empty
Empty
p1695
(dp1696
g29
I00
sg30
g122
sg32
(imap.components.point
Point
p1697
(dp1698
g35
I19
sg36
I14
sbsba(imap.components.empty
Empty
p1699
(dp1700
g29
I00
sg30
g122
sg32
(imap.components.point
Point
p1701
(dp1702
g35
I19
sg36
I15
sbsba(imap.components.empty
Empty
p1703
(dp1704
g29
I00
sg30
g122
sg32
(imap.components.point
Point
p1705
(dp1706
g35
I19
sg36
I16
sbsba(imap.components.empty
Empty
p1707
(dp1708
g29
I00
sg30
g122
sg32
(imap.components.point
Point
p1709
(dp1710
g35
I19
sg36
I17
sbsba(imap.components.empty
Empty
p1711
(dp1712
g29
I00
sg30
g122
sg32
(imap.components.point
Point
p1713
(dp1714
g35
I19
sg36
I18
sbsba(imap.components.empty
Empty
p1715
(dp1716
g29
I00
sg30
g122
sg32
(imap.components.point
Point
p1717
(dp1718
g35
I19
sg36
I19
sbsba(imap.components.empty
Empty
p1719
(dp1720
g29
I00
sg30
g122
sg32
(imap.components.point
Point
p1721
(dp1722
g35
I19
sg36
I20
sbsba(imap.components.wall
Wall
p1723
(dp1724
g29
I00
sg30
g41
sg32
(imap.components.point
Point
p1725
(dp1726
g35
I20
sg36
I0
sbsba(imap.components.door
Door
p1727
(dp1728
g29
I01
sg30
g172
sg32
(imap.components.point
Point
p1729
(dp1730
g35
I20
sg36
I1
sbsba(imap.components.wall
Wall
p1731
(dp1732
g29
I00
sg30
g41
sg32
(imap.components.point
Point
p1733
(dp1734
g35
I20
sg36
I2
sbsba(imap.components.wall
Wall
p1735
(dp1736
g29
I00
sg30
g41
sg32
(imap.components.point
Point
p1737
(dp1738
g35
I20
sg36
I3
sbsba(imap.components.wall
Wall
p1739
(dp1740
g29
I00
sg30
g41
sg32
(imap.components.point
Point
p1741
(dp1742
g35
I20
sg36
I4
sbsba(imap.components.floor
Floor
p1743
(dp1744
g29
I01
sg30
g131
sg32
(imap.components.point
Point
p1745
(dp1746
g35
I20
sg36
I5
sbsba(imap.components.floor
Floor
p1747
(dp1748
g29
I01
sg30
g131
sg32
(imap.components.point
Point
p1749
(dp1750
g35
I20
sg36
I6
sbsba(imap.components.floor
Floor
p1751
(dp1752
g29
I01
sg30
g131
sg32
(imap.components.point
Point
p1753
(dp1754
g35
I20
sg36
I7
sbsba(imap.components.floor
Floor
p1755
(dp1756
g29
I01
sg30
g131
sg32
(imap.components.point
Point
p1757
(dp1758
g35
I20
sg36
I8
sbsba(imap.components.floor
Floor
p1759
(dp1760
g29
I01
sg30
g131
sg32
(imap.components.point
Point
p1761
(dp1762
g35
I20
sg36
I9
sbsba(imap.components.floor
Floor
p1763
(dp1764
g29
I01
sg30
g131
sg32
(imap.components.point
Point
p1765
(dp1766
g35
I20
sg36
I10
sbsba(imap.components.wall
Wall
p1767
(dp1768
g29
I00
sg30
g41
sg32
(imap.components.point
Point
p1769
(dp1770
g35
I20
sg36
I11
sbsba(imap.components.floor
Floor
p1771
(dp1772
g29
I01
sg30
g131
sg32
(imap.components.point
Point
p1773
(dp1774
g35
I20
sg36
I12
sbsba(imap.components.wall
Wall
p1775
(dp1776
g29
I00
sg30
g41
sg32
(imap.components.point
Point
p1777
(dp1778
g35
I20
sg36
I13
sbsba(imap.components.empty
Empty
p1779
(dp1780
g29
I00
sg30
g122
sg32
(imap.components.point
Point
p1781
(dp1782
g35
I20
sg36
I14
sbsba(imap.components.empty
Empty
p1783
(dp1784
g29
I00
sg30
g122
sg32
(imap.components.point
Point
p1785
(dp1786
g35
I20
sg36
I15
sbsba(imap.components.empty
Empty
p1787
(dp1788
g29
I00
sg30
g122
sg32
(imap.components.point
Point
p1789
(dp1790
g35
I20
sg36
I16
sbsba(imap.components.empty
Empty
p1791
(dp1792
g29
I00
sg30
g122
sg32
(imap.components.point
Point
p1793
(dp1794
g35
I20
sg36
I17
sbsba(imap.components.empty
Empty
p1795
(dp1796
g29
I00
sg30
g122
sg32
(imap.components.point
Point
p1797
(dp1798
g35
I20
sg36
I18
sbsba(imap.components.empty
Empty
p1799
(dp1800
g29
I00
sg30
g122
sg32
(imap.components.point
Point
p1801
(dp1802
g35
I20
sg36
I19
sbsba(imap.components.empty
Empty
p1803
(dp1804
g29
I00
sg30
g122
sg32
(imap.components.point
Point
p1805
(dp1806
g35
I20
sg36
I20
sbsba(imap.components.wall
Wall
p1807
(dp1808
g29
I00
sg30
g41
sg32
(imap.components.point
Point
p1809
(dp1810
g35
I21
sg36
I0
sbsba(imap.components.floor
Floor
p1811
(dp1812
g29
I01
sg30
g131
sg32
(imap.components.point
Point
p1813
(dp1814
g35
I21
sg36
I1
sbsba(imap.components.floor
Floor
p1815
(dp1816
g29
I01
sg30
g131
sg32
(imap.components.point
Point
p1817
(dp1818
g35
I21
sg36
I2
sbsba(imap.components.floor
Floor
p1819
(dp1820
g29
I01
sg30
g131
sg32
(imap.components.point
Point
p1821
(dp1822
g35
I21
sg36
I3
sbsba(imap.components.wall
Wall
p1823
(dp1824
g29
I00
sg30
g41
sg32
(imap.components.point
Point
p1825
(dp1826
g35
I21
sg36
I4
sbsba(imap.components.wall
Wall
p1827
(dp1828
g29
I00
sg30
g41
sg32
(imap.components.point
Point
p1829
(dp1830
g35
I21
sg36
I5
sbsba(imap.components.wall
Wall
p1831
(dp1832
g29
I00
sg30
g41
sg32
(imap.components.point
Point
p1833
(dp1834
g35
I21
sg36
I6
sbsba(imap.components.wall
Wall
p1835
(dp1836
g29
I00
sg30
g41
sg32
(imap.components.point
Point
p1837
(dp1838
g35
I21
sg36
I7
sbsba(imap.components.wall
Wall
p1839
(dp1840
g29
I00
sg30
g41
sg32
(imap.components.point
Point
p1841
(dp1842
g35
I21
sg36
I8
sbsba(imap.components.wall
Wall
p1843
(dp1844
g29
I00
sg30
g41
sg32
(imap.components.point
Point
p1845
(dp1846
g35
I21
sg36
I9
sbsba(imap.components.wall
Wall
p1847
(dp1848
g29
I00
sg30
g41
sg32
(imap.components.point
Point
p1849
(dp1850
g35
I21
sg36
I10
sbsba(imap.components.wall
Wall
p1851
(dp1852
g29
I00
sg30
g41
sg32
(imap.components.point
Point
p1853
(dp1854
g35
I21
sg36
I11
sbsba(imap.components.floor
Floor
p1855
(dp1856
g29
I01
sg30
g131
sg32
(imap.components.point
Point
p1857
(dp1858
g35
I21
sg36
I12
sbsba(imap.components.wall
Wall
p1859
(dp1860
g29
I00
sg30
g41
sg32
(imap.components.point
Point
p1861
(dp1862
g35
I21
sg36
I13
sbsba(imap.components.wall
Wall
p1863
(dp1864
g29
I00
sg30
g41
sg32
(imap.components.point
Point
p1865
(dp1866
g35
I21
sg36
I14
sbsba(imap.components.wall
Wall
p1867
(dp1868
g29
I00
sg30
g41
sg32
(imap.components.point
Point
p1869
(dp1870
g35
I21
sg36
I15
sbsba(imap.components.wall
Wall
p1871
(dp1872
g29
I00
sg30
g41
sg32
(imap.components.point
Point
p1873
(dp1874
g35
I21
sg36
I16
sbsba(imap.components.wall
Wall
p1875
(dp1876
g29
I00
sg30
g41
sg32
(imap.components.point
Point
p1877
(dp1878
g35
I21
sg36
I17
sbsba(imap.components.wall
Wall
p1879
(dp1880
g29
I00
sg30
g41
sg32
(imap.components.point
Point
p1881
(dp1882
g35
I21
sg36
I18
sbsba(imap.components.door
Door
p1883
(dp1884
g29
I01
sg30
g172
sg32
(imap.components.point
Point
p1885
(dp1886
g35
I21
sg36
I19
sbsba(imap.components.wall
Wall
p1887
(dp1888
g29
I00
sg30
g41
sg32
(imap.components.point
Point
p1889
(dp1890
g35
I21
sg36
I20
sbsba(imap.components.wall
Wall
p1891
(dp1892
g29
I00
sg30
g41
sg32
(imap.components.point
Point
p1893
(dp1894
g35
I22
sg36
I0
sbsba(imap.components.floor
Floor
p1895
(dp1896
g29
I01
sg30
g131
sg32
(imap.components.point
Point
p1897
(dp1898
g35
I22
sg36
I1
sbsba(imap.components.floor
Floor
p1899
(dp1900
g29
I01
sg30
g131
sg32
(imap.components.point
Point
p1901
(dp1902
g35
I22
sg36
I2
sbsba(imap.components.floor
Floor
p1903
(dp1904
g29
I01
sg30
g131
sg32
(imap.components.point
Point
p1905
(dp1906
g35
I22
sg36
I3
sbsba(imap.components.floor
Floor
p1907
(dp1908
g29
I01
sg30
g131
sg32
(imap.components.point
Point
p1909
(dp1910
g35
I22
sg36
I4
sbsba(imap.components.floor
Floor
p1911
(dp1912
g29
I01
sg30
g131
sg32
(imap.components.point
Point
p1913
(dp1914
g35
I22
sg36
I5
sbsba(imap.components.floor
Floor
p1915
(dp1916
g29
I01
sg30
g131
sg32
(imap.components.point
Point
p1917
(dp1918
g35
I22
sg36
I6
sbsba(imap.components.floor
Floor
p1919
(dp1920
g29
I01
sg30
g131
sg32
(imap.components.point
Point
p1921
(dp1922
g35
I22
sg36
I7
sbsba(imap.components.floor
Floor
p1923
(dp1924
g29
I01
sg30
g131
sg32
(imap.components.point
Point
p1925
(dp1926
g35
I22
sg36
I8
sbsba(imap.components.floor
Floor
p1927
(dp1928
g29
I01
sg30
g131
sg32
(imap.components.point
Point
p1929
(dp1930
g35
I22
sg36
I9
sbsba(imap.components.floor
Floor
p1931
(dp1932
g29
I01
sg30
g131
sg32
(imap.components.point
Point
p1933
(dp1934
g35
I22
sg36
I10
sbsba(imap.components.wall
Wall
p1935
(dp1936
g29
I00
sg30
g41
sg32
(imap.components.point
Point
p1937
(dp1938
g35
I22
sg36
I11
sbsba(imap.components.floor
Floor
p1939
(dp1940
g29
I01
sg30
g131
sg32
(imap.components.point
Point
p1941
(dp1942
g35
I22
sg36
I12
sbsba(imap.components.floor
Floor
p1943
(dp1944
g29
I01
sg30
g131
sg32
(imap.components.point
Point
p1945
(dp1946
g35
I22
sg36
I13
sbsba(imap.components.floor
Floor
p1947
(dp1948
g29
I01
sg30
g131
sg32
(imap.components.point
Point
p1949
(dp1950
g35
I22
sg36
I14
sbsba(imap.components.floor
Floor
p1951
(dp1952
g29
I01
sg30
g131
sg32
(imap.components.point
Point
p1953
(dp1954
g35
I22
sg36
I15
sbsba(imap.components.floor
Floor
p1955
(dp1956
g29
I01
sg30
g131
sg32
(imap.components.point
Point
p1957
(dp1958
g35
I22
sg36
I16
sbsba(imap.components.floor
Floor
p1959
(dp1960
g29
I01
sg30
g131
sg32
(imap.components.point
Point
p1961
(dp1962
g35
I22
sg36
I17
sbsba(imap.components.floor
Floor
p1963
(dp1964
g29
I01
sg30
g131
sg32
(imap.components.point
Point
p1965
(dp1966
g35
I22
sg36
I18
sbsba(imap.components.floor
Floor
p1967
(dp1968
g29
I01
sg30
g131
sg32
(imap.components.point
Point
p1969
(dp1970
g35
I22
sg36
I19
sbsba(imap.components.wall
Wall
p1971
(dp1972
g29
I00
sg30
g41
sg32
(imap.components.point
Point
p1973
(dp1974
g35
I22
sg36
I20
sbsba(imap.components.wall
Wall
p1975
(dp1976
g29
I00
sg30
g41
sg32
(imap.components.point
Point
p1977
(dp1978
g35
I23
sg36
I0
sbsba(imap.components.wall
Wall
p1979
(dp1980
g29
I00
sg30
g41
sg32
(imap.components.point
Point
p1981
(dp1982
g35
I23
sg36
I1
sbsba(imap.components.wall
Wall
p1983
(dp1984
g29
I00
sg30
g41
sg32
(imap.components.point
Point
p1985
(dp1986
g35
I23
sg36
I2
sbsba(imap.components.wall
Wall
p1987
(dp1988
g29
I00
sg30
g41
sg32
(imap.components.point
Point
p1989
(dp1990
g35
I23
sg36
I3
sbsba(imap.components.wall
Wall
p1991
(dp1992
g29
I00
sg30
g41
sg32
(imap.components.point
Point
p1993
(dp1994
g35
I23
sg36
I4
sbsba(imap.components.wall
Wall
p1995
(dp1996
g29
I00
sg30
g41
sg32
(imap.components.point
Point
p1997
(dp1998
g35
I23
sg36
I5
sbsba(imap.components.wall
Wall
p1999
(dp2000
g29
I00
sg30
g41
sg32
(imap.components.point
Point
p2001
(dp2002
g35
I23
sg36
I6
sbsba(imap.components.wall
Wall
p2003
(dp2004
g29
I00
sg30
g41
sg32
(imap.components.point
Point
p2005
(dp2006
g35
I23
sg36
I7
sbsba(imap.components.wall
Wall
p2007
(dp2008
g29
I00
sg30
g41
sg32
(imap.components.point
Point
p2009
(dp2010
g35
I23
sg36
I8
sbsba(imap.components.wall
Wall
p2011
(dp2012
g29
I00
sg30
g41
sg32
(imap.components.point
Point
p2013
(dp2014
g35
I23
sg36
I9
sbsba(imap.components.wall
Wall
p2015
(dp2016
g29
I00
sg30
g41
sg32
(imap.components.point
Point
p2017
(dp2018
g35
I23
sg36
I10
sbsba(imap.components.wall
Wall
p2019
(dp2020
g29
I00
sg30
g41
sg32
(imap.components.point
Point
p2021
(dp2022
g35
I23
sg36
I11
sbsba(imap.components.wall
Wall
p2023
(dp2024
g29
I00
sg30
g41
sg32
(imap.components.point
Point
p2025
(dp2026
g35
I23
sg36
I12
sbsba(imap.components.wall
Wall
p2027
(dp2028
g29
I00
sg30
g41
sg32
(imap.components.point
Point
p2029
(dp2030
g35
I23
sg36
I13
sbsba(imap.components.wall
Wall
p2031
(dp2032
g29
I00
sg30
g41
sg32
(imap.components.point
Point
p2033
(dp2034
g35
I23
sg36
I14
sbsba(imap.components.wall
Wall
p2035
(dp2036
g29
I00
sg30
g41
sg32
(imap.components.point
Point
p2037
(dp2038
g35
I23
sg36
I15
sbsba(imap.components.wall
Wall
p2039
(dp2040
g29
I00
sg30
g41
sg32
(imap.components.point
Point
p2041
(dp2042
g35
I23
sg36
I16
sbsba(imap.components.wall
Wall
p2043
(dp2044
g29
I00
sg30
g41
sg32
(imap.components.point
Point
p2045
(dp2046
g35
I23
sg36
I17
sbsba(imap.components.wall
Wall
p2047
(dp2048
g29
I00
sg30
g41
sg32
(imap.components.point
Point
p2049
(dp2050
g35
I23
sg36
I18
sbsba(imap.components.wall
Wall
p2051
(dp2052
g29
I00
sg30
g41
sg32
(imap.components.point
Point
p2053
(dp2054
g35
I23
sg36
I19
sbsba(imap.components.wall
Wall
p2055
(dp2056
g29
I00
sg30
g41
sg32
(imap.components.point
Point
p2057
(dp2058
g35
I23
sg36
I20
sbsbasbsS'_status'
p2059
I0
sg37
(igame_map
GameMap
p2060
(dp2061
g26
(imap.components.robot
Robot
p2062
(dp2063
g29
I00
sg30
g31
sg32
g33
sbsg37
(lp2064
g39
ag44
ag48
ag52
ag56
ag60
ag64
ag68
ag72
ag76
ag80
ag84
ag88
ag92
ag96
ag100
ag104
ag108
ag112
ag116
a(imap.components.wall
Wall
p2065
(dp2066
g29
I00
sg30
g41
sg32
(imap.components.point
Point
p2067
(dp2068
g35
I0
sg36
I20
sbsba(imap.components.wall
Wall
p2069
(dp2070
g29
I00
sg30
g41
sg32
(imap.components.point
Point
p2071
(dp2072
g35
I0
sg36
I21
sbsba(imap.components.wall
Wall
p2073
(dp2074
g29
I00
sg30
g41
sg32
(imap.components.point
Point
p2075
(dp2076
g35
I0
sg36
I22
sbsba(imap.components.wall
Wall
p2077
(dp2078
g29
I00
sg30
g41
sg32
(imap.components.point
Point
p2079
(dp2080
g35
I0
sg36
I23
sbsba(imap.components.wall
Wall
p2081
(dp2082
g29
I00
sg30
g41
sg32
(imap.components.point
Point
p2083
(dp2084
g35
I0
sg36
I24
sbsba(imap.components.wall
Wall
p2085
(dp2086
g29
I00
sg30
g41
sg32
(imap.components.point
Point
p2087
(dp2088
g35
I0
sg36
I25
sbsba(imap.components.wall
Wall
p2089
(dp2090
g29
I00
sg30
g41
sg32
(imap.components.point
Point
p2091
(dp2092
g35
I0
sg36
I26
sbsba(imap.components.wall
Wall
p2093
(dp2094
g29
I00
sg30
g41
sg32
(imap.components.point
Point
p2095
(dp2096
g35
I0
sg36
I27
sbsba(imap.components.wall
Wall
p2097
(dp2098
g29
I00
sg30
g41
sg32
(imap.components.point
Point
p2099
(dp2100
g35
I0
sg36
I28
sbsba(imap.components.wall
Wall
p2101
(dp2102
g29
I00
sg30
g41
sg32
(imap.components.point
Point
p2103
(dp2104
g35
I0
sg36
I29
sbsba(imap.components.wall
Wall
p2105
(dp2106
g29
I00
sg30
g41
sg32
(imap.components.point
Point
p2107
(dp2108
g35
I0
sg36
I30
sbsba(imap.components.wall
Wall
p2109
(dp2110
g29
I00
sg30
g41
sg32
(imap.components.point
Point
p2111
(dp2112
g35
I0
sg36
I31
sbsba(imap.components.wall
Wall
p2113
(dp2114
g29
I00
sg30
g41
sg32
(imap.components.point
Point
p2115
(dp2116
g35
I0
sg36
I32
sbsba(imap.components.wall
Wall
p2117
(dp2118
g29
I00
sg30
g41
sg32
(imap.components.point
Point
p2119
(dp2120
g35
I0
sg36
I33
sbsba(imap.components.wall
Wall
p2121
(dp2122
g29
I00
sg30
g41
sg32
(imap.components.point
Point
p2123
(dp2124
g35
I0
sg36
I34
sbsba(imap.components.wall
Wall
p2125
(dp2126
g29
I00
sg30
g41
sg32
(imap.components.point
Point
p2127
(dp2128
g35
I0
sg36
I35
sbsba(imap.components.wall
Wall
p2129
(dp2130
g29
I00
sg30
g41
sg32
(imap.components.point
Point
p2131
(dp2132
g35
I0
sg36
I36
sbsba(imap.components.wall
Wall
p2133
(dp2134
g29
I00
sg30
g41
sg32
(imap.components.point
Point
p2135
(dp2136
g35
I0
sg36
I37
sbsba(imap.components.wall
Wall
p2137
(dp2138
g29
I00
sg30
g41
sg32
(imap.components.point
Point
p2139
(dp2140
g35
I0
sg36
I38
sbsba(imap.components.wall
Wall
p2141
(dp2142
g29
I00
sg30
g41
sg32
(imap.components.point
Point
p2143
(dp2144
g35
I0
sg36
I39
sbsba(imap.components.wall
Wall
p2145
(dp2146
g29
I00
sg30
g41
sg32
(imap.components.point
Point
p2147
(dp2148
g35
I0
sg36
I40
sbsbag125
ag129
ag134
ag138
ag142
ag146
ag150
ag154
ag158
ag162
ag166
ag170
ag175
ag179
ag183
ag187
ag191
ag195
ag199
ag203
a(imap.components.floor
Floor
p2149
(dp2150
g29
I01
sg30
g131
sg32
(imap.components.point
Point
p2151
(dp2152
g35
I1
sg36
I20
sbsba(imap.components.floor
Floor
p2153
(dp2154
g29
I01
sg30
g131
sg32
(imap.components.point
Point
p2155
(dp2156
g35
I1
sg36
I21
sbsba(imap.components.floor
Floor
p2157
(dp2158
g29
I01
sg30
g131
sg32
(imap.components.point
Point
p2159
(dp2160
g35
I1
sg36
I22
sbsba(imap.components.floor
Floor
p2161
(dp2162
g29
I01
sg30
g131
sg32
(imap.components.point
Point
p2163
(dp2164
g35
I1
sg36
I23
sbsba(imap.components.floor
Floor
p2165
(dp2166
g29
I01
sg30
g131
sg32
(imap.components.point
Point
p2167
(dp2168
g35
I1
sg36
I24
sbsba(imap.components.floor
Floor
p2169
(dp2170
g29
I01
sg30
g131
sg32
(imap.components.point
Point
p2171
(dp2172
g35
I1
sg36
I25
sbsba(imap.components.floor
Floor
p2173
(dp2174
g29
I01
sg30
g131
sg32
(imap.components.point
Point
p2175
(dp2176
g35
I1
sg36
I26
sbsba(imap.components.floor
Floor
p2177
(dp2178
g29
I01
sg30
g131
sg32
(imap.components.point
Point
p2179
(dp2180
g35
I1
sg36
I27
sbsba(imap.components.floor
Floor
p2181
(dp2182
g29
I01
sg30
g131
sg32
(imap.components.point
Point
p2183
(dp2184
g35
I1
sg36
I28
sbsba(imap.components.door
Door
p2185
(dp2186
g29
I01
sg30
g172
sg32
(imap.components.point
Point
p2187
(dp2188
g35
I1
sg36
I29
sbsba(imap.components.floor
Floor
p2189
(dp2190
g29
I01
sg30
g131
sg32
(imap.components.point
Point
p2191
(dp2192
g35
I1
sg36
I30
sbsba(imap.components.floor
Floor
p2193
(dp2194
g29
I01
sg30
g131
sg32
(imap.components.point
Point
p2195
(dp2196
g35
I1
sg36
I31
sbsba(imap.components.floor
Floor
p2197
(dp2198
g29
I01
sg30
g131
sg32
(imap.components.point
Point
p2199
(dp2200
g35
I1
sg36
I32
sbsba(imap.components.floor
Floor
p2201
(dp2202
g29
I01
sg30
g131
sg32
(imap.components.point
Point
p2203
(dp2204
g35
I1
sg36
I33
sbsba(imap.components.floor
Floor
p2205
(dp2206
g29
I01
sg30
g131
sg32
(imap.components.point
Point
p2207
(dp2208
g35
I1
sg36
I34
sbsba(imap.components.floor
Floor
p2209
(dp2210
g29
I01
sg30
g131
sg32
(imap.components.point
Point
p2211
(dp2212
g35
I1
sg36
I35
sbsba(imap.components.floor
Floor
p2213
(dp2214
g29
I01
sg30
g131
sg32
(imap.components.point
Point
p2215
(dp2216
g35
I1
sg36
I36
sbsba(imap.components.floor
Floor
p2217
(dp2218
g29
I01
sg30
g131
sg32
(imap.components.point
Point
p2219
(dp2220
g35
I1
sg36
I37
sbsba(imap.components.door
Door
p2221
(dp2222
g29
I01
sg30
g172
sg32
(imap.components.point
Point
p2223
(dp2224
g35
I1
sg36
I38
sbsba(imap.components.floor
Floor
p2225
(dp2226
g29
I01
sg30
g131
sg32
(imap.components.point
Point
p2227
(dp2228
g35
I1
sg36
I39
sbsba(imap.components.wall
Wall
p2229
(dp2230
g29
I00
sg30
g41
sg32
(imap.components.point
Point
p2231
(dp2232
g35
I1
sg36
I40
sbsbag211
ag215
ag219
ag223
ag227
ag231
ag235
ag239
ag243
ag247
ag251
ag255
ag259
ag263
ag267
ag271
ag275
ag279
ag283
ag287
a(imap.components.door
Door
p2233
(dp2234
g29
I01
sg30
g172
sg32
(imap.components.point
Point
p2235
(dp2236
g35
I2
sg36
I20
sbsba(imap.components.wall
Wall
p2237
(dp2238
g29
I00
sg30
g41
sg32
(imap.components.point
Point
p2239
(dp2240
g35
I2
sg36
I21
sbsba(imap.components.wall
Wall
p2241
(dp2242
g29
I00
sg30
g41
sg32
(imap.components.point
Point
p2243
(dp2244
g35
I2
sg36
I22
sbsba(imap.components.wall
Wall
p2245
(dp2246
g29
I00
sg30
g41
sg32
(imap.components.point
Point
p2247
(dp2248
g35
I2
sg36
I23
sbsba(imap.components.wall
Wall
p2249
(dp2250
g29
I00
sg30
g41
sg32
(imap.components.point
Point
p2251
(dp2252
g35
I2
sg36
I24
sbsba(imap.components.floor
Floor
p2253
(dp2254
g29
I01
sg30
g131
sg32
(imap.components.point
Point
p2255
(dp2256
g35
I2
sg36
I25
sbsba(imap.components.floor
Floor
p2257
(dp2258
g29
I01
sg30
g131
sg32
(imap.components.point
Point
p2259
(dp2260
g35
I2
sg36
I26
sbsba(imap.components.floor
Floor
p2261
(dp2262
g29
I01
sg30
g131
sg32
(imap.components.point
Point
p2263
(dp2264
g35
I2
sg36
I27
sbsba(imap.components.floor
Floor
p2265
(dp2266
g29
I01
sg30
g131
sg32
(imap.components.point
Point
p2267
(dp2268
g35
I2
sg36
I28
sbsba(imap.components.wall
Wall
p2269
(dp2270
g29
I00
sg30
g41
sg32
(imap.components.point
Point
p2271
(dp2272
g35
I2
sg36
I29
sbsba(imap.components.floor
Floor
p2273
(dp2274
g29
I01
sg30
g131
sg32
(imap.components.point
Point
p2275
(dp2276
g35
I2
sg36
I30
sbsba(imap.components.wall
Wall
p2277
(dp2278
g29
I00
sg30
g41
sg32
(imap.components.point
Point
p2279
(dp2280
g35
I2
sg36
I31
sbsba(imap.components.wall
Wall
p2281
(dp2282
g29
I00
sg30
g41
sg32
(imap.components.point
Point
p2283
(dp2284
g35
I2
sg36
I32
sbsba(imap.components.wall
Wall
p2285
(dp2286
g29
I00
sg30
g41
sg32
(imap.components.point
Point
p2287
(dp2288
g35
I2
sg36
I33
sbsba(imap.components.wall
Wall
p2289
(dp2290
g29
I00
sg30
g41
sg32
(imap.components.point
Point
p2291
(dp2292
g35
I2
sg36
I34
sbsba(imap.components.wall
Wall
p2293
(dp2294
g29
I00
sg30
g41
sg32
(imap.components.point
Point
p2295
(dp2296
g35
I2
sg36
I35
sbsba(imap.components.wall
Wall
p2297
(dp2298
g29
I00
sg30
g41
sg32
(imap.components.point
Point
p2299
(dp2300
g35
I2
sg36
I36
sbsba(imap.components.door
Door
p2301
(dp2302
g29
I01
sg30
g172
sg32
(imap.components.point
Point
p2303
(dp2304
g35
I2
sg36
I37
sbsba(imap.components.wall
Wall
p2305
(dp2306
g29
I00
sg30
g41
sg32
(imap.components.point
Point
p2307
(dp2308
g35
I2
sg36
I38
sbsba(imap.components.floor
Floor
p2309
(dp2310
g29
I01
sg30
g131
sg32
(imap.components.point
Point
p2311
(dp2312
g35
I2
sg36
I39
sbsba(imap.components.wall
Wall
p2313
(dp2314
g29
I00
sg30
g41
sg32
(imap.components.point
Point
p2315
(dp2316
g35
I2
sg36
I40
sbsba(imap.components.wall
Wall
p2317
(dp2318
g29
I00
sg30
g41
sg32
(imap.components.point
Point
p2319
(dp2320
g35
I3
sg36
I0
sbsba(imap.components.floor
Floor
p2321
(dp2322
g29
I01
sg30
g131
sg32
(imap.components.point
Point
p2323
(dp2324
g35
I3
sg36
I1
sbsba(imap.components.floor
Floor
p2325
(dp2326
g29
I01
sg30
g131
sg32
(imap.components.point
Point
p2327
(dp2328
g35
I3
sg36
I2
sbsba(imap.components.floor
Floor
p2329
(dp2330
g29
I01
sg30
g131
sg32
(imap.components.point
Point
p2331
(dp2332
g35
I3
sg36
I3
sbsbag311
ag315
ag319
ag323
ag327
ag331
ag335
ag339
ag343
ag347
ag351
ag355
ag359
ag363
ag367
ag371
a(imap.components.floor
Floor
p2333
(dp2334
g29
I01
sg30
g131
sg32
(imap.components.point
Point
p2335
(dp2336
g35
I3
sg36
I20
sbsba(imap.components.floor
Floor
p2337
(dp2338
g29
I01
sg30
g131
sg32
(imap.components.point
Point
p2339
(dp2340
g35
I3
sg36
I21
sbsba(imap.components.floor
Floor
p2341
(dp2342
g29
I01
sg30
g131
sg32
(imap.components.point
Point
p2343
(dp2344
g35
I3
sg36
I22
sbsba(imap.components.floor
Floor
p2345
(dp2346
g29
I01
sg30
g131
sg32
(imap.components.point
Point
p2347
(dp2348
g35
I3
sg36
I23
sbsba(imap.components.wall
Wall
p2349
(dp2350
g29
I00
sg30
g41
sg32
(imap.components.point
Point
p2351
(dp2352
g35
I3
sg36
I24
sbsba(imap.components.wall
Wall
p2353
(dp2354
g29
I00
sg30
g41
sg32
(imap.components.point
Point
p2355
(dp2356
g35
I3
sg36
I25
sbsba(imap.components.wall
Wall
p2357
(dp2358
g29
I00
sg30
g41
sg32
(imap.components.point
Point
p2359
(dp2360
g35
I3
sg36
I26
sbsba(imap.components.wall
Wall
p2361
(dp2362
g29
I00
sg30
g41
sg32
(imap.components.point
Point
p2363
(dp2364
g35
I3
sg36
I27
sbsba(imap.components.door
Door
p2365
(dp2366
g29
I01
sg30
g172
sg32
(imap.components.point
Point
p2367
(dp2368
g35
I3
sg36
I28
sbsba(imap.components.wall
Wall
p2369
(dp2370
g29
I00
sg30
g41
sg32
(imap.components.point
Point
p2371
(dp2372
g35
I3
sg36
I29
sbsba(imap.components.wall
Wall
p2373
(dp2374
g29
I00
sg30
g41
sg32
(imap.components.point
Point
p2375
(dp2376
g35
I3
sg36
I30
sbsba(imap.components.wall
Wall
p2377
(dp2378
g29
I00
sg30
g41
sg32
(imap.components.point
Point
p2379
(dp2380
g35
I3
sg36
I31
sbsba(imap.components.floor
Floor
p2381
(dp2382
g29
I01
sg30
g131
sg32
(imap.components.point
Point
p2383
(dp2384
g35
I3
sg36
I32
sbsba(imap.components.floor
Floor
p2385
(dp2386
g29
I01
sg30
g131
sg32
(imap.components.point
Point
p2387
(dp2388
g35
I3
sg36
I33
sbsba(imap.components.floor
Floor
p2389
(dp2390
g29
I01
sg30
g131
sg32
(imap.components.point
Point
p2391
(dp2392
g35
I3
sg36
I34
sbsba(imap.components.floor
Floor
p2393
(dp2394
g29
I01
sg30
g131
sg32
(imap.components.point
Point
p2395
(dp2396
g35
I3
sg36
I35
sbsba(imap.components.door
Door
p2397
(dp2398
g29
I01
sg30
g172
sg32
(imap.components.point
Point
p2399
(dp2400
g35
I3
sg36
I36
sbsba(imap.components.floor
Floor
p2401
(dp2402
g29
I01
sg30
g131
sg32
(imap.components.point
Point
p2403
(dp2404
g35
I3
sg36
I37
sbsba(imap.components.wall
Wall
p2405
(dp2406
g29
I00
sg30
g41
sg32
(imap.components.point
Point
p2407
(dp2408
g35
I3
sg36
I38
sbsba(imap.components.floor
Floor
p2409
(dp2410
g29
I01
sg30
g131
sg32
(imap.components.point
Point
p2411
(dp2412
g35
I3
sg36
I39
sbsba(imap.components.wall
Wall
p2413
(dp2414
g29
I00
sg30
g41
sg32
(imap.components.point
Point
p2415
(dp2416
g35
I3
sg36
I40
sbsba(imap.components.wall
Wall
p2417
(dp2418
g29
I00
sg30
g41
sg32
(imap.components.point
Point
p2419
(dp2420
g35
I4
sg36
I0
sbsba(imap.components.floor
Floor
p2421
(dp2422
g29
I01
sg30
g131
sg32
(imap.components.point
Point
p2423
(dp2424
g35
I4
sg36
I1
sbsba(imap.components.wall
Wall
p2425
(dp2426
g29
I00
sg30
g41
sg32
(imap.components.point
Point
p2427
(dp2428
g35
I4
sg36
I2
sbsba(imap.components.floor
Floor
p2429
(dp2430
g29
I01
sg30
g131
sg32
(imap.components.point
Point
p2431
(dp2432
g35
I4
sg36
I3
sbsbag395
ag399
ag403
ag407
ag411
ag415
ag419
ag423
ag427
ag431
ag435
ag439
ag443
ag447
ag451
ag455
a(imap.components.wall
Wall
p2433
(dp2434
g29
I00
sg30
g41
sg32
(imap.components.point
Point
p2435
(dp2436
g35
I4
sg36
I20
sbsba(imap.components.wall
Wall
p2437
(dp2438
g29
I00
sg30
g41
sg32
(imap.components.point
Point
p2439
(dp2440
g35
I4
sg36
I21
sbsba(imap.components.wall
Wall
p2441
(dp2442
g29
I00
sg30
g41
sg32
(imap.components.point
Point
p2443
(dp2444
g35
I4
sg36
I22
sbsba(imap.components.floor
Floor
p2445
(dp2446
g29
I01
sg30
g131
sg32
(imap.components.point
Point
p2447
(dp2448
g35
I4
sg36
I23
sbsba(imap.components.wall
Wall
p2449
(dp2450
g29
I00
sg30
g41
sg32
(imap.components.point
Point
p2451
(dp2452
g35
I4
sg36
I24
sbsba(imap.components.floor
Floor
p2453
(dp2454
g29
I01
sg30
g131
sg32
(imap.components.point
Point
p2455
(dp2456
g35
I4
sg36
I25
sbsba(imap.components.floor
Floor
p2457
(dp2458
g29
I01
sg30
g131
sg32
(imap.components.point
Point
p2459
(dp2460
g35
I4
sg36
I26
sbsba(imap.components.wall
Wall
p2461
(dp2462
g29
I00
sg30
g41
sg32
(imap.components.point
Point
p2463
(dp2464
g35
I4
sg36
I27
sbsba(imap.components.floor
Floor
p2465
(dp2466
g29
I01
sg30
g131
sg32
(imap.components.point
Point
p2467
(dp2468
g35
I4
sg36
I28
sbsba(imap.components.floor
Floor
p2469
(dp2470
g29
I01
sg30
g131
sg32
(imap.components.point
Point
p2471
(dp2472
g35
I4
sg36
I29
sbsba(imap.components.floor
Floor
p2473
(dp2474
g29
I01
sg30
g131
sg32
(imap.components.point
Point
p2475
(dp2476
g35
I4
sg36
I30
sbsba(imap.components.floor
Floor
p2477
(dp2478
g29
I01
sg30
g131
sg32
(imap.components.point
Point
p2479
(dp2480
g35
I4
sg36
I31
sbsba(imap.components.floor
Floor
p2481
(dp2482
g29
I01
sg30
g131
sg32
(imap.components.point
Point
p2483
(dp2484
g35
I4
sg36
I32
sbsba(imap.components.wall
Wall
p2485
(dp2486
g29
I00
sg30
g41
sg32
(imap.components.point
Point
p2487
(dp2488
g35
I4
sg36
I33
sbsba(imap.components.wall
Wall
p2489
(dp2490
g29
I00
sg30
g41
sg32
(imap.components.point
Point
p2491
(dp2492
g35
I4
sg36
I34
sbsba(imap.components.wall
Wall
p2493
(dp2494
g29
I00
sg30
g41
sg32
(imap.components.point
Point
p2495
(dp2496
g35
I4
sg36
I35
sbsba(imap.components.wall
Wall
p2497
(dp2498
g29
I00
sg30
g41
sg32
(imap.components.point
Point
p2499
(dp2500
g35
I4
sg36
I36
sbsba(imap.components.floor
Floor
p2501
(dp2502
g29
I01
sg30
g131
sg32
(imap.components.point
Point
p2503
(dp2504
g35
I4
sg36
I37
sbsba(imap.components.wall
Wall
p2505
(dp2506
g29
I00
sg30
g41
sg32
(imap.components.point
Point
p2507
(dp2508
g35
I4
sg36
I38
sbsba(imap.components.floor
Floor
p2509
(dp2510
g29
I01
sg30
g131
sg32
(imap.components.point
Point
p2511
(dp2512
g35
I4
sg36
I39
sbsba(imap.components.wall
Wall
p2513
(dp2514
g29
I00
sg30
g41
sg32
(imap.components.point
Point
p2515
(dp2516
g35
I4
sg36
I40
sbsba(imap.components.wall
Wall
p2517
(dp2518
g29
I00
sg30
g41
sg32
(imap.components.point
Point
p2519
(dp2520
g35
I5
sg36
I0
sbsba(imap.components.floor
Floor
p2521
(dp2522
g29
I01
sg30
g131
sg32
(imap.components.point
Point
p2523
(dp2524
g35
I5
sg36
I1
sbsba(imap.components.wall
Wall
p2525
(dp2526
g29
I00
sg30
g41
sg32
(imap.components.point
Point
p2527
(dp2528
g35
I5
sg36
I2
sbsba(imap.components.floor
Floor
p2529
(dp2530
g29
I01
sg30
g131
sg32
(imap.components.point
Point
p2531
(dp2532
g35
I5
sg36
I3
sbsbag479
ag483
ag487
ag491
ag495
ag499
ag503
ag507
ag511
ag515
ag519
ag523
ag527
ag531
ag535
ag539
a(imap.components.floor
Floor
p2533
(dp2534
g29
I01
sg30
g131
sg32
(imap.components.point
Point
p2535
(dp2536
g35
I5
sg36
I20
sbsba(imap.components.floor
Floor
p2537
(dp2538
g29
I01
sg30
g131
sg32
(imap.components.point
Point
p2539
(dp2540
g35
I5
sg36
I21
sbsba(imap.components.floor
Floor
p2541
(dp2542
g29
I01
sg30
g131
sg32
(imap.components.point
Point
p2543
(dp2544
g35
I5
sg36
I22
sbsba(imap.components.floor
Floor
p2545
(dp2546
g29
I01
sg30
g131
sg32
(imap.components.point
Point
p2547
(dp2548
g35
I5
sg36
I23
sbsba(imap.components.wall
Wall
p2549
(dp2550
g29
I00
sg30
g41
sg32
(imap.components.point
Point
p2551
(dp2552
g35
I5
sg36
I24
sbsba(imap.components.floor
Floor
p2553
(dp2554
g29
I01
sg30
g131
sg32
(imap.components.point
Point
p2555
(dp2556
g35
I5
sg36
I25
sbsba(imap.components.wall
Wall
p2557
(dp2558
g29
I00
sg30
g41
sg32
(imap.components.point
Point
p2559
(dp2560
g35
I5
sg36
I26
sbsba(imap.components.wall
Wall
p2561
(dp2562
g29
I00
sg30
g41
sg32
(imap.components.point
Point
p2563
(dp2564
g35
I5
sg36
I27
sbsba(imap.components.wall
Wall
p2565
(dp2566
g29
I00
sg30
g41
sg32
(imap.components.point
Point
p2567
(dp2568
g35
I5
sg36
I28
sbsba(imap.components.wall
Wall
p2569
(dp2570
g29
I00
sg30
g41
sg32
(imap.components.point
Point
p2571
(dp2572
g35
I5
sg36
I29
sbsba(imap.components.wall
Wall
p2573
(dp2574
g29
I00
sg30
g41
sg32
(imap.components.point
Point
p2575
(dp2576
g35
I5
sg36
I30
sbsba(imap.components.wall
Wall
p2577
(dp2578
g29
I00
sg30
g41
sg32
(imap.components.point
Point
p2579
(dp2580
g35
I5
sg36
I31
sbsba(imap.components.wall
Wall
p2581
(dp2582
g29
I00
sg30
g41
sg32
(imap.components.point
Point
p2583
(dp2584
g35
I5
sg36
I32
sbsba(imap.components.wall
Wall
p2585
(dp2586
g29
I00
sg30
g41
sg32
(imap.components.point
Point
p2587
(dp2588
g35
I5
sg36
I33
sbsba(imap.components.floor
Floor
p2589
(dp2590
g29
I01
sg30
g131
sg32
(imap.components.point
Point
p2591
(dp2592
g35
I5
sg36
I34
sbsba(imap.components.floor
Floor
p2593
(dp2594
g29
I01
sg30
g131
sg32
(imap.components.point
Point
p2595
(dp2596
g35
I5
sg36
I35
sbsba(imap.components.wall
Wall
p2597
(dp2598
g29
I00
sg30
g41
sg32
(imap.components.point
Point
p2599
(dp2600
g35
I5
sg36
I36
sbsba(imap.components.floor
Floor
p2601
(dp2602
g29
I01
sg30
g131
sg32
(imap.components.point
Point
p2603
(dp2604
g35
I5
sg36
I37
sbsba(imap.components.wall
Wall
p2605
(dp2606
g29
I00
sg30
g41
sg32
(imap.components.point
Point
p2607
(dp2608
g35
I5
sg36
I38
sbsba(imap.components.floor
Floor
p2609
(dp2610
g29
I01
sg30
g131
sg32
(imap.components.point
Point
p2611
(dp2612
g35
I5
sg36
I39
sbsba(imap.components.wall
Wall
p2613
(dp2614
g29
I00
sg30
g41
sg32
(imap.components.point
Point
p2615
(dp2616
g35
I5
sg36
I40
sbsba(imap.components.wall
Wall
p2617
(dp2618
g29
I00
sg30
g41
sg32
(imap.components.point
Point
p2619
(dp2620
g35
I6
sg36
I0
sbsba(imap.components.floor
Floor
p2621
(dp2622
g29
I01
sg30
g131
sg32
(imap.components.point
Point
p2623
(dp2624
g35
I6
sg36
I1
sbsba(imap.components.wall
Wall
p2625
(dp2626
g29
I00
sg30
g41
sg32
(imap.components.point
Point
p2627
(dp2628
g35
I6
sg36
I2
sbsbag559
ag563
ag567
ag571
ag575
ag579
ag583
ag587
ag591
ag595
ag599
ag603
ag607
ag611
ag615
ag619
ag623
a(imap.components.wall
Wall
p2629
(dp2630
g29
I00
sg30
g41
sg32
(imap.components.point
Point
p2631
(dp2632
g35
I6
sg36
I20
sbsba(imap.components.wall
Wall
p2633
(dp2634
g29
I00
sg30
g41
sg32
(imap.components.point
Point
p2635
(dp2636
g35
I6
sg36
I21
sbsba(imap.components.wall
Wall
p2637
(dp2638
g29
I00
sg30
g41
sg32
(imap.components.point
Point
p2639
(dp2640
g35
I6
sg36
I22
sbsba(imap.components.wall
Wall
p2641
(dp2642
g29
I00
sg30
g41
sg32
(imap.components.point
Point
p2643
(dp2644
g35
I6
sg36
I23
sbsba(imap.components.wall
Wall
p2645
(dp2646
g29
I00
sg30
g41
sg32
(imap.components.point
Point
p2647
(dp2648
g35
I6
sg36
I24
sbsba(imap.components.door
Door
p2649
(dp2650
g29
I01
sg30
g172
sg32
(imap.components.point
Point
p2651
(dp2652
g35
I6
sg36
I25
sbsba(imap.components.wall
Wall
p2653
(dp2654
g29
I00
sg30
g41
sg32
(imap.components.point
Point
p2655
(dp2656
g35
I6
sg36
I26
sbsba(imap.components.wall
Wall
p2657
(dp2658
g29
I00
sg30
g41
sg32
(imap.components.point
Point
p2659
(dp2660
g35
I6
sg36
I27
sbsba(imap.components.wall
Wall
p2661
(dp2662
g29
I00
sg30
g41
sg32
(imap.components.point
Point
p2663
(dp2664
g35
I6
sg36
I28
sbsba(imap.components.floor
Floor
p2665
(dp2666
g29
I01
sg30
g131
sg32
(imap.components.point
Point
p2667
(dp2668
g35
I6
sg36
I29
sbsba(imap.components.door
Door
p2669
(dp2670
g29
I01
sg30
g172
sg32
(imap.components.point
Point
p2671
(dp2672
g35
I6
sg36
I30
sbsba(imap.components.floor
Floor
p2673
(dp2674
g29
I01
sg30
g131
sg32
(imap.components.point
Point
p2675
(dp2676
g35
I6
sg36
I31
sbsba(imap.components.floor
Floor
p2677
(dp2678
g29
I01
sg30
g131
sg32
(imap.components.point
Point
p2679
(dp2680
g35
I6
sg36
I32
sbsba(imap.components.floor
Floor
p2681
(dp2682
g29
I01
sg30
g131
sg32
(imap.components.point
Point
p2683
(dp2684
g35
I6
sg36
I33
sbsba(imap.components.floor
Floor
p2685
(dp2686
g29
I01
sg30
g131
sg32
(imap.components.point
Point
p2687
(dp2688
g35
I6
sg36
I34
sbsba(imap.components.floor
Floor
p2689
(dp2690
g29
I01
sg30
g131
sg32
(imap.components.point
Point
p2691
(dp2692
g35
I6
sg36
I35
sbsba(imap.components.door
Door
p2693
(dp2694
g29
I01
sg30
g172
sg32
(imap.components.point
Point
p2695
(dp2696
g35
I6
sg36
I36
sbsba(imap.components.floor
Floor
p2697
(dp2698
g29
I01
sg30
g131
sg32
(imap.components.point
Point
p2699
(dp2700
g35
I6
sg36
I37
sbsba(imap.components.wall
Wall
p2701
(dp2702
g29
I00
sg30
g41
sg32
(imap.components.point
Point
p2703
(dp2704
g35
I6
sg36
I38
sbsba(imap.components.floor
Floor
p2705
(dp2706
g29
I01
sg30
g131
sg32
(imap.components.point
Point
p2707
(dp2708
g35
I6
sg36
I39
sbsba(imap.components.wall
Wall
p2709
(dp2710
g29
I00
sg30
g41
sg32
(imap.components.point
Point
p2711
(dp2712
g35
I6
sg36
I40
sbsba(imap.components.wall
Wall
p2713
(dp2714
g29
I00
sg30
g41
sg32
(imap.components.point
Point
p2715
(dp2716
g35
I7
sg36
I0
sbsba(imap.components.floor
Floor
p2717
(dp2718
g29
I01
sg30
g131
sg32
(imap.components.point
Point
p2719
(dp2720
g35
I7
sg36
I1
sbsba(imap.components.floor
Floor
p2721
(dp2722
g29
I01
sg30
g131
sg32
(imap.components.point
Point
p2723
(dp2724
g35
I7
sg36
I2
sbsbag643
ag647
ag651
ag655
ag659
ag663
ag667
ag671
ag675
ag679
ag683
ag687
ag691
ag695
ag699
ag703
ag707
a(imap.components.floor
Floor
p2725
(dp2726
g29
I01
sg30
g131
sg32
(imap.components.point
Point
p2727
(dp2728
g35
I7
sg36
I20
sbsba(imap.components.floor
Floor
p2729
(dp2730
g29
I01
sg30
g131
sg32
(imap.components.point
Point
p2731
(dp2732
g35
I7
sg36
I21
sbsba(imap.components.door
Door
p2733
(dp2734
g29
I01
sg30
g172
sg32
(imap.components.point
Point
p2735
(dp2736
g35
I7
sg36
I22
sbsba(imap.components.floor
Floor
p2737
(dp2738
g29
I01
sg30
g131
sg32
(imap.components.point
Point
p2739
(dp2740
g35
I7
sg36
I23
sbsba(imap.components.floor
Floor
p2741
(dp2742
g29
I01
sg30
g131
sg32
(imap.components.point
Point
p2743
(dp2744
g35
I7
sg36
I24
sbsba(imap.components.floor
Floor
p2745
(dp2746
g29
I01
sg30
g131
sg32
(imap.components.point
Point
p2747
(dp2748
g35
I7
sg36
I25
sbsba(imap.components.floor
Floor
p2749
(dp2750
g29
I01
sg30
g131
sg32
(imap.components.point
Point
p2751
(dp2752
g35
I7
sg36
I26
sbsba(imap.components.floor
Floor
p2753
(dp2754
g29
I01
sg30
g131
sg32
(imap.components.point
Point
p2755
(dp2756
g35
I7
sg36
I27
sbsba(imap.components.floor
Floor
p2757
(dp2758
g29
I01
sg30
g131
sg32
(imap.components.point
Point
p2759
(dp2760
g35
I7
sg36
I28
sbsba(imap.components.floor
Floor
p2761
(dp2762
g29
I01
sg30
g131
sg32
(imap.components.point
Point
p2763
(dp2764
g35
I7
sg36
I29
sbsba(imap.components.wall
Wall
p2765
(dp2766
g29
I00
sg30
g41
sg32
(imap.components.point
Point
p2767
(dp2768
g35
I7
sg36
I30
sbsba(imap.components.wall
Wall
p2769
(dp2770
g29
I00
sg30
g41
sg32
(imap.components.point
Point
p2771
(dp2772
g35
I7
sg36
I31
sbsba(imap.components.wall
Wall
p2773
(dp2774
g29
I00
sg30
g41
sg32
(imap.components.point
Point
p2775
(dp2776
g35
I7
sg36
I32
sbsba(imap.components.wall
Wall
p2777
(dp2778
g29
I00
sg30
g41
sg32
(imap.components.point
Point
p2779
(dp2780
g35
I7
sg36
I33
sbsba(imap.components.wall
Wall
p2781
(dp2782
g29
I00
sg30
g41
sg32
(imap.components.point
Point
p2783
(dp2784
g35
I7
sg36
I34
sbsba(imap.components.wall
Wall
p2785
(dp2786
g29
I00
sg30
g41
sg32
(imap.components.point
Point
p2787
(dp2788
g35
I7
sg36
I35
sbsba(imap.components.wall
Wall
p2789
(dp2790
g29
I00
sg30
g41
sg32
(imap.components.point
Point
p2791
(dp2792
g35
I7
sg36
I36
sbsba(imap.components.floor
Floor
p2793
(dp2794
g29
I01
sg30
g131
sg32
(imap.components.point
Point
p2795
(dp2796
g35
I7
sg36
I37
sbsba(imap.components.door
Door
p2797
(dp2798
g29
I01
sg30
g172
sg32
(imap.components.point
Point
p2799
(dp2800
g35
I7
sg36
I38
sbsba(imap.components.floor
Floor
p2801
(dp2802
g29
I01
sg30
g131
sg32
(imap.components.point
Point
p2803
(dp2804
g35
I7
sg36
I39
sbsba(imap.components.wall
Wall
p2805
(dp2806
g29
I00
sg30
g41
sg32
(imap.components.point
Point
p2807
(dp2808
g35
I7
sg36
I40
sbsba(imap.components.wall
Wall
p2809
(dp2810
g29
I00
sg30
g41
sg32
(imap.components.point
Point
p2811
(dp2812
g35
I8
sg36
I0
sbsba(imap.components.floor
Floor
p2813
(dp2814
g29
I01
sg30
g131
sg32
(imap.components.point
Point
p2815
(dp2816
g35
I8
sg36
I1
sbsba(imap.components.floor
Floor
p2817
(dp2818
g29
I01
sg30
g131
sg32
(imap.components.point
Point
p2819
(dp2820
g35
I8
sg36
I2
sbsbag727
ag731
ag735
ag739
ag743
ag747
ag751
ag755
ag759
ag763
ag767
ag771
ag775
ag779
ag783
ag787
ag791
a(imap.components.floor
Floor
p2821
(dp2822
g29
I01
sg30
g131
sg32
(imap.components.point
Point
p2823
(dp2824
g35
I8
sg36
I20
sbsba(imap.components.wall
Wall
p2825
(dp2826
g29
I00
sg30
g41
sg32
(imap.components.point
Point
p2827
(dp2828
g35
I8
sg36
I21
sbsba(imap.components.wall
Wall
p2829
(dp2830
g29
I00
sg30
g41
sg32
(imap.components.point
Point
p2831
(dp2832
g35
I8
sg36
I22
sbsba(imap.components.floor
Floor
p2833
(dp2834
g29
I01
sg30
g131
sg32
(imap.components.point
Point
p2835
(dp2836
g35
I8
sg36
I23
sbsba(imap.components.wall
Wall
p2837
(dp2838
g29
I00
sg30
g41
sg32
(imap.components.point
Point
p2839
(dp2840
g35
I8
sg36
I24
sbsba(imap.components.wall
Wall
p2841
(dp2842
g29
I00
sg30
g41
sg32
(imap.components.point
Point
p2843
(dp2844
g35
I8
sg36
I25
sbsba(imap.components.wall
Wall
p2845
(dp2846
g29
I00
sg30
g41
sg32
(imap.components.point
Point
p2847
(dp2848
g35
I8
sg36
I26
sbsba(imap.components.wall
Wall
p2849
(dp2850
g29
I00
sg30
g41
sg32
(imap.components.point
Point
p2851
(dp2852
g35
I8
sg36
I27
sbsba(imap.components.wall
Wall
p2853
(dp2854
g29
I00
sg30
g41
sg32
(imap.components.point
Point
p2855
(dp2856
g35
I8
sg36
I28
sbsba(imap.components.floor
Floor
p2857
(dp2858
g29
I01
sg30
g131
sg32
(imap.components.point
Point
p2859
(dp2860
g35
I8
sg36
I29
sbsba(imap.components.door
Door
p2861
(dp2862
g29
I01
sg30
g172
sg32
(imap.components.point
Point
p2863
(dp2864
g35
I8
sg36
I30
sbsba(imap.components.floor
Floor
p2865
(dp2866
g29
I01
sg30
g131
sg32
(imap.components.point
Point
p2867
(dp2868
g35
I8
sg36
I31
sbsba(imap.components.floor
Floor
p2869
(dp2870
g29
I01
sg30
g131
sg32
(imap.components.point
Point
p2871
(dp2872
g35
I8
sg36
I32
sbsba(imap.components.floor
Floor
p2873
(dp2874
g29
I01
sg30
g131
sg32
(imap.components.point
Point
p2875
(dp2876
g35
I8
sg36
I33
sbsba(imap.components.floor
Floor
p2877
(dp2878
g29
I01
sg30
g131
sg32
(imap.components.point
Point
p2879
(dp2880
g35
I8
sg36
I34
sbsba(imap.components.floor
Floor
p2881
(dp2882
g29
I01
sg30
g131
sg32
(imap.components.point
Point
p2883
(dp2884
g35
I8
sg36
I35
sbsba(imap.components.wall
Wall
p2885
(dp2886
g29
I00
sg30
g41
sg32
(imap.components.point
Point
p2887
(dp2888
g35
I8
sg36
I36
sbsba(imap.components.wall
Wall
p2889
(dp2890
g29
I00
sg30
g41
sg32
(imap.components.point
Point
p2891
(dp2892
g35
I8
sg36
I37
sbsba(imap.components.wall
Wall
p2893
(dp2894
g29
I00
sg30
g41
sg32
(imap.components.point
Point
p2895
(dp2896
g35
I8
sg36
I38
sbsba(imap.components.wall
Wall
p2897
(dp2898
g29
I00
sg30
g41
sg32
(imap.components.point
Point
p2899
(dp2900
g35
I8
sg36
I39
sbsba(imap.components.wall
Wall
p2901
(dp2902
g29
I00
sg30
g41
sg32
(imap.components.point
Point
p2903
(dp2904
g35
I8
sg36
I40
sbsba(imap.components.wall
Wall
p2905
(dp2906
g29
I00
sg30
g41
sg32
(imap.components.point
Point
p2907
(dp2908
g35
I9
sg36
I0
sbsba(imap.components.floor
Floor
p2909
(dp2910
g29
I01
sg30
g131
sg32
(imap.components.point
Point
p2911
(dp2912
g35
I9
sg36
I1
sbsba(imap.components.wall
Wall
p2913
(dp2914
g29
I00
sg30
g41
sg32
(imap.components.point
Point
p2915
(dp2916
g35
I9
sg36
I2
sbsba(imap.components.wall
Wall
p2917
(dp2918
g29
I00
sg30
g41
sg32
(imap.components.point
Point
p2919
(dp2920
g35
I9
sg36
I3
sbsbag815
ag819
ag823
ag827
ag831
ag835
ag839
ag843
ag847
ag851
ag855
ag859
ag863
ag867
ag871
ag875
a(imap.components.floor
Floor
p2921
(dp2922
g29
I01
sg30
g131
sg32
(imap.components.point
Point
p2923
(dp2924
g35
I9
sg36
I20
sbsba(imap.components.wall
Wall
p2925
(dp2926
g29
I00
sg30
g41
sg32
(imap.components.point
Point
p2927
(dp2928
g35
I9
sg36
I21
sbsba(imap.components.wall
Wall
p2929
(dp2930
g29
I00
sg30
g41
sg32
(imap.components.point
Point
p2931
(dp2932
g35
I9
sg36
I22
sbsba(imap.components.floor
Floor
p2933
(dp2934
g29
I01
sg30
g131
sg32
(imap.components.point
Point
p2935
(dp2936
g35
I9
sg36
I23
sbsba(imap.components.wall
Wall
p2937
(dp2938
g29
I00
sg30
g41
sg32
(imap.components.point
Point
p2939
(dp2940
g35
I9
sg36
I24
sbsba(imap.components.floor
Floor
p2941
(dp2942
g29
I01
sg30
g131
sg32
(imap.components.point
Point
p2943
(dp2944
g35
I9
sg36
I25
sbsba(imap.components.door
Door
p2945
(dp2946
g29
I01
sg30
g172
sg32
(imap.components.point
Point
p2947
(dp2948
g35
I9
sg36
I26
sbsba(imap.components.floor
Floor
p2949
(dp2950
g29
I01
sg30
g131
sg32
(imap.components.point
Point
p2951
(dp2952
g35
I9
sg36
I27
sbsba(imap.components.wall
Wall
p2953
(dp2954
g29
I00
sg30
g41
sg32
(imap.components.point
Point
p2955
(dp2956
g35
I9
sg36
I28
sbsba(imap.components.floor
Floor
p2957
(dp2958
g29
I01
sg30
g131
sg32
(imap.components.point
Point
p2959
(dp2960
g35
I9
sg36
I29
sbsba(imap.components.wall
Wall
p2961
(dp2962
g29
I00
sg30
g41
sg32
(imap.components.point
Point
p2963
(dp2964
g35
I9
sg36
I30
sbsba(imap.components.wall
Wall
p2965
(dp2966
g29
I00
sg30
g41
sg32
(imap.components.point
Point
p2967
(dp2968
g35
I9
sg36
I31
sbsba(imap.components.wall
Wall
p2969
(dp2970
g29
I00
sg30
g41
sg32
(imap.components.point
Point
p2971
(dp2972
g35
I9
sg36
I32
sbsba(imap.components.wall
Wall
p2973
(dp2974
g29
I00
sg30
g41
sg32
(imap.components.point
Point
p2975
(dp2976
g35
I9
sg36
I33
sbsba(imap.components.wall
Wall
p2977
(dp2978
g29
I00
sg30
g41
sg32
(imap.components.point
Point
p2979
(dp2980
g35
I9
sg36
I34
sbsba(imap.components.floor
Floor
p2981
(dp2982
g29
I01
sg30
g131
sg32
(imap.components.point
Point
p2983
(dp2984
g35
I9
sg36
I35
sbsba(imap.components.door
Door
p2985
(dp2986
g29
I01
sg30
g172
sg32
(imap.components.point
Point
p2987
(dp2988
g35
I9
sg36
I36
sbsba(imap.components.floor
Floor
p2989
(dp2990
g29
I01
sg30
g131
sg32
(imap.components.point
Point
p2991
(dp2992
g35
I9
sg36
I37
sbsba(imap.components.floor
Floor
p2993
(dp2994
g29
I01
sg30
g131
sg32
(imap.components.point
Point
p2995
(dp2996
g35
I9
sg36
I38
sbsba(imap.components.floor
Floor
p2997
(dp2998
g29
I01
sg30
g131
sg32
(imap.components.point
Point
p2999
(dp3000
g35
I9
sg36
I39
sbsba(imap.components.wall
Wall
p3001
(dp3002
g29
I00
sg30
g41
sg32
(imap.components.point
Point
p3003
(dp3004
g35
I9
sg36
I40
sbsba(imap.components.wall
Wall
p3005
(dp3006
g29
I00
sg30
g41
sg32
(imap.components.point
Point
p3007
(dp3008
g35
I10
sg36
I0
sbsba(imap.components.floor
Floor
p3009
(dp3010
g29
I01
sg30
g131
sg32
(imap.components.point
Point
p3011
(dp3012
g35
I10
sg36
I1
sbsba(imap.components.floor
Floor
p3013
(dp3014
g29
I01
sg30
g131
sg32
(imap.components.point
Point
p3015
(dp3016
g35
I10
sg36
I2
sbsba(imap.components.floor
Floor
p3017
(dp3018
g29
I01
sg30
g131
sg32
(imap.components.point
Point
p3019
(dp3020
g35
I10
sg36
I3
sbsba(imap.components.floor
Floor
p3021
(dp3022
g29
I01
sg30
g131
sg32
(imap.components.point
Point
p3023
(dp3024
g35
I10
sg36
I4
sbsba(imap.components.floor
Floor
p3025
(dp3026
g29
I01
sg30
g131
sg32
(imap.components.point
Point
p3027
(dp3028
g35
I10
sg36
I5
sbsbag907
ag911
ag915
ag919
ag923
ag927
ag931
ag935
ag939
ag943
ag947
ag951
ag955
ag959
a(imap.components.floor
Floor
p3029
(dp3030
g29
I01
sg30
g131
sg32
(imap.components.point
Point
p3031
(dp3032
g35
I10
sg36
I20
sbsba(imap.components.door
Door
p3033
(dp3034
g29
I01
sg30
g172
sg32
(imap.components.point
Point
p3035
(dp3036
g35
I10
sg36
I21
sbsba(imap.components.floor
Floor
p3037
(dp3038
g29
I01
sg30
g131
sg32
(imap.components.point
Point
p3039
(dp3040
g35
I10
sg36
I22
sbsba(imap.components.floor
Floor
p3041
(dp3042
g29
I01
sg30
g131
sg32
(imap.components.point
Point
p3043
(dp3044
g35
I10
sg36
I23
sbsba(imap.components.wall
Wall
p3045
(dp3046
g29
I00
sg30
g41
sg32
(imap.components.point
Point
p3047
(dp3048
g35
I10
sg36
I24
sbsba(imap.components.floor
Floor
p3049
(dp3050
g29
I01
sg30
g131
sg32
(imap.components.point
Point
p3051
(dp3052
g35
I10
sg36
I25
sbsba(imap.components.wall
Wall
p3053
(dp3054
g29
I00
sg30
g41
sg32
(imap.components.point
Point
p3055
(dp3056
g35
I10
sg36
I26
sbsba(imap.components.floor
Floor
p3057
(dp3058
g29
I01
sg30
g131
sg32
(imap.components.point
Point
p3059
(dp3060
g35
I10
sg36
I27
sbsba(imap.components.wall
Wall
p3061
(dp3062
g29
I00
sg30
g41
sg32
(imap.components.point
Point
p3063
(dp3064
g35
I10
sg36
I28
sbsba(imap.components.floor
Floor
p3065
(dp3066
g29
I01
sg30
g131
sg32
(imap.components.point
Point
p3067
(dp3068
g35
I10
sg36
I29
sbsba(imap.components.door
Door
p3069
(dp3070
g29
I01
sg30
g172
sg32
(imap.components.point
Point
p3071
(dp3072
g35
I10
sg36
I30
sbsba(imap.components.floor
Floor
p3073
(dp3074
g29
I01
sg30
g131
sg32
(imap.components.point
Point
p3075
(dp3076
g35
I10
sg36
I31
sbsba(imap.components.floor
Floor
p3077
(dp3078
g29
I01
sg30
g131
sg32
(imap.components.point
Point
p3079
(dp3080
g35
I10
sg36
I32
sbsba(imap.components.floor
Floor
p3081
(dp3082
g29
I01
sg30
g131
sg32
(imap.components.point
Point
p3083
(dp3084
g35
I10
sg36
I33
sbsba(imap.components.floor
Floor
p3085
(dp3086
g29
I01
sg30
g131
sg32
(imap.components.point
Point
p3087
(dp3088
g35
I10
sg36
I34
sbsba(imap.components.floor
Floor
p3089
(dp3090
g29
I01
sg30
g131
sg32
(imap.components.point
Point
p3091
(dp3092
g35
I10
sg36
I35
sbsba(imap.components.wall
Wall
p3093
(dp3094
g29
I00
sg30
g41
sg32
(imap.components.point
Point
p3095
(dp3096
g35
I10
sg36
I36
sbsba(imap.components.wall
Wall
p3097
(dp3098
g29
I00
sg30
g41
sg32
(imap.components.point
Point
p3099
(dp3100
g35
I10
sg36
I37
sbsba(imap.components.wall
Wall
p3101
(dp3102
g29
I00
sg30
g41
sg32
(imap.components.point
Point
p3103
(dp3104
g35
I10
sg36
I38
sbsba(imap.components.floor
Floor
p3105
(dp3106
g29
I01
sg30
g131
sg32
(imap.components.point
Point
p3107
(dp3108
g35
I10
sg36
I39
sbsba(imap.components.wall
Wall
p3109
(dp3110
g29
I00
sg30
g41
sg32
(imap.components.point
Point
p3111
(dp3112
g35
I10
sg36
I40
sbsba(imap.components.wall
Wall
p3113
(dp3114
g29
I00
sg30
g41
sg32
(imap.components.point
Point
p3115
(dp3116
g35
I11
sg36
I0
sbsba(imap.components.wall
Wall
p3117
(dp3118
g29
I00
sg30
g41
sg32
(imap.components.point
Point
p3119
(dp3120
g35
I11
sg36
I1
sbsba(imap.components.wall
Wall
p3121
(dp3122
g29
I00
sg30
g41
sg32
(imap.components.point
Point
p3123
(dp3124
g35
I11
sg36
I2
sbsba(imap.components.wall
Wall
p3125
(dp3126
g29
I00
sg30
g41
sg32
(imap.components.point
Point
p3127
(dp3128
g35
I11
sg36
I3
sbsba(imap.components.wall
Wall
p3129
(dp3130
g29
I00
sg30
g41
sg32
(imap.components.point
Point
p3131
(dp3132
g35
I11
sg36
I4
sbsba(imap.components.floor
Floor
p3133
(dp3134
g29
I01
sg30
g131
sg32
(imap.components.point
Point
p3135
(dp3136
g35
I11
sg36
I5
sbsbag991
ag995
ag999
ag1003
ag1007
ag1011
ag1015
ag1019
ag1023
ag1027
ag1031
ag1035
ag1039
ag1043
a(imap.components.floor
Floor
p3137
(dp3138
g29
I01
sg30
g131
sg32
(imap.components.point
Point
p3139
(dp3140
g35
I11
sg36
I20
sbsba(imap.components.wall
Wall
p3141
(dp3142
g29
I00
sg30
g41
sg32
(imap.components.point
Point
p3143
(dp3144
g35
I11
sg36
I21
sbsba(imap.components.wall
Wall
p3145
(dp3146
g29
I00
sg30
g41
sg32
(imap.components.point
Point
p3147
(dp3148
g35
I11
sg36
I22
sbsba(imap.components.wall
Wall
p3149
(dp3150
g29
I00
sg30
g41
sg32
(imap.components.point
Point
p3151
(dp3152
g35
I11
sg36
I23
sbsba(imap.components.wall
Wall
p3153
(dp3154
g29
I00
sg30
g41
sg32
(imap.components.point
Point
p3155
(dp3156
g35
I11
sg36
I24
sbsba(imap.components.floor
Floor
p3157
(dp3158
g29
I01
sg30
g131
sg32
(imap.components.point
Point
p3159
(dp3160
g35
I11
sg36
I25
sbsba(imap.components.wall
Wall
p3161
(dp3162
g29
I00
sg30
g41
sg32
(imap.components.point
Point
p3163
(dp3164
g35
I11
sg36
I26
sbsba(imap.components.floor
Floor
p3165
(dp3166
g29
I01
sg30
g131
sg32
(imap.components.point
Point
p3167
(dp3168
g35
I11
sg36
I27
sbsba(imap.components.wall
Wall
p3169
(dp3170
g29
I00
sg30
g41
sg32
(imap.components.point
Point
p3171
(dp3172
g35
I11
sg36
I28
sbsba(imap.components.floor
Floor
p3173
(dp3174
g29
I01
sg30
g131
sg32
(imap.components.point
Point
p3175
(dp3176
g35
I11
sg36
I29
sbsba(imap.components.wall
Wall
p3177
(dp3178
g29
I00
sg30
g41
sg32
(imap.components.point
Point
p3179
(dp3180
g35
I11
sg36
I30
sbsba(imap.components.wall
Wall
p3181
(dp3182
g29
I00
sg30
g41
sg32
(imap.components.point
Point
p3183
(dp3184
g35
I11
sg36
I31
sbsba(imap.components.wall
Wall
p3185
(dp3186
g29
I00
sg30
g41
sg32
(imap.components.point
Point
p3187
(dp3188
g35
I11
sg36
I32
sbsba(imap.components.wall
Wall
p3189
(dp3190
g29
I00
sg30
g41
sg32
(imap.components.point
Point
p3191
(dp3192
g35
I11
sg36
I33
sbsba(imap.components.wall
Wall
p3193
(dp3194
g29
I00
sg30
g41
sg32
(imap.components.point
Point
p3195
(dp3196
g35
I11
sg36
I34
sbsba(imap.components.wall
Wall
p3197
(dp3198
g29
I00
sg30
g41
sg32
(imap.components.point
Point
p3199
(dp3200
g35
I11
sg36
I35
sbsba(imap.components.wall
Wall
p3201
(dp3202
g29
I00
sg30
g41
sg32
(imap.components.point
Point
p3203
(dp3204
g35
I11
sg36
I36
sbsba(imap.components.floor
Floor
p3205
(dp3206
g29
I01
sg30
g131
sg32
(imap.components.point
Point
p3207
(dp3208
g35
I11
sg36
I37
sbsba(imap.components.wall
Wall
p3209
(dp3210
g29
I00
sg30
g41
sg32
(imap.components.point
Point
p3211
(dp3212
g35
I11
sg36
I38
sbsba(imap.components.floor
Floor
p3213
(dp3214
g29
I01
sg30
g131
sg32
(imap.components.point
Point
p3215
(dp3216
g35
I11
sg36
I39
sbsba(imap.components.wall
Wall
p3217
(dp3218
g29
I00
sg30
g41
sg32
(imap.components.point
Point
p3219
(dp3220
g35
I11
sg36
I40
sbsba(imap.components.wall
Wall
p3221
(dp3222
g29
I00
sg30
g41
sg32
(imap.components.point
Point
p3223
(dp3224
g35
I12
sg36
I0
sbsba(imap.components.floor
Floor
p3225
(dp3226
g29
I01
sg30
g131
sg32
(imap.components.point
Point
p3227
(dp3228
g35
I12
sg36
I1
sbsba(imap.components.floor
Floor
p3229
(dp3230
g29
I01
sg30
g131
sg32
(imap.components.point
Point
p3231
(dp3232
g35
I12
sg36
I2
sbsba(imap.components.floor
Floor
p3233
(dp3234
g29
I01
sg30
g131
sg32
(imap.components.point
Point
p3235
(dp3236
g35
I12
sg36
I3
sbsba(imap.components.wall
Wall
p3237
(dp3238
g29
I00
sg30
g41
sg32
(imap.components.point
Point
p3239
(dp3240
g35
I12
sg36
I4
sbsba(imap.components.floor
Floor
p3241
(dp3242
g29
I01
sg30
g131
sg32
(imap.components.point
Point
p3243
(dp3244
g35
I12
sg36
I5
sbsbag1075
ag1079
ag1083
ag1087
ag1091
ag1095
ag1099
ag1103
ag1107
ag1111
ag1115
ag1119
ag1123
ag1127
a(imap.components.floor
Floor
p3245
(dp3246
g29
I01
sg30
g131
sg32
(imap.components.point
Point
p3247
(dp3248
g35
I12
sg36
I20
sbsba(imap.components.wall
Wall
p3249
(dp3250
g29
I00
sg30
g41
sg32
(imap.components.point
Point
p3251
(dp3252
g35
I12
sg36
I21
sbsba(imap.components.floor
Floor
p3253
(dp3254
g29
I01
sg30
g131
sg32
(imap.components.point
Point
p3255
(dp3256
g35
I12
sg36
I22
sbsba(imap.components.wall
Wall
p3257
(dp3258
g29
I00
sg30
g41
sg32
(imap.components.point
Point
p3259
(dp3260
g35
I12
sg36
I23
sbsba(imap.components.floor
Floor
p3261
(dp3262
g29
I01
sg30
g131
sg32
(imap.components.point
Point
p3263
(dp3264
g35
I12
sg36
I24
sbsba(imap.components.floor
Floor
p3265
(dp3266
g29
I01
sg30
g131
sg32
(imap.components.point
Point
p3267
(dp3268
g35
I12
sg36
I25
sbsba(imap.components.wall
Wall
p3269
(dp3270
g29
I00
sg30
g41
sg32
(imap.components.point
Point
p3271
(dp3272
g35
I12
sg36
I26
sbsba(imap.components.floor
Floor
p3273
(dp3274
g29
I01
sg30
g131
sg32
(imap.components.point
Point
p3275
(dp3276
g35
I12
sg36
I27
sbsba(imap.components.wall
Wall
p3277
(dp3278
g29
I00
sg30
g41
sg32
(imap.components.point
Point
p3279
(dp3280
g35
I12
sg36
I28
sbsba(imap.components.floor
Floor
p3281
(dp3282
g29
I01
sg30
g131
sg32
(imap.components.point
Point
p3283
(dp3284
g35
I12
sg36
I29
sbsba(imap.components.wall
Wall
p3285
(dp3286
g29
I00
sg30
g41
sg32
(imap.components.point
Point
p3287
(dp3288
g35
I12
sg36
I30
sbsba(imap.components.floor
Floor
p3289
(dp3290
g29
I01
sg30
g131
sg32
(imap.components.point
Point
p3291
(dp3292
g35
I12
sg36
I31
sbsba(imap.components.floor
Floor
p3293
(dp3294
g29
I01
sg30
g131
sg32
(imap.components.point
Point
p3295
(dp3296
g35
I12
sg36
I32
sbsba(imap.components.door
Door
p3297
(dp3298
g29
I01
sg30
g172
sg32
(imap.components.point
Point
p3299
(dp3300
g35
I12
sg36
I33
sbsba(imap.components.floor
Floor
p3301
(dp3302
g29
I01
sg30
g131
sg32
(imap.components.point
Point
p3303
(dp3304
g35
I12
sg36
I34
sbsba(imap.components.door
Door
p3305
(dp3306
g29
I01
sg30
g172
sg32
(imap.components.point
Point
p3307
(dp3308
g35
I12
sg36
I35
sbsba(imap.components.floor
Floor
p3309
(dp3310
g29
I01
sg30
g131
sg32
(imap.components.point
Point
p3311
(dp3312
g35
I12
sg36
I36
sbsba(imap.components.floor
Floor
p3313
(dp3314
g29
I01
sg30
g131
sg32
(imap.components.point
Point
p3315
(dp3316
g35
I12
sg36
I37
sbsba(imap.components.wall
Wall
p3317
(dp3318
g29
I00
sg30
g41
sg32
(imap.components.point
Point
p3319
(dp3320
g35
I12
sg36
I38
sbsba(imap.components.floor
Floor
p3321
(dp3322
g29
I01
sg30
g131
sg32
(imap.components.point
Point
p3323
(dp3324
g35
I12
sg36
I39
sbsba(imap.components.wall
Wall
p3325
(dp3326
g29
I00
sg30
g41
sg32
(imap.components.point
Point
p3327
(dp3328
g35
I12
sg36
I40
sbsba(imap.components.wall
Wall
p3329
(dp3330
g29
I00
sg30
g41
sg32
(imap.components.point
Point
p3331
(dp3332
g35
I13
sg36
I0
sbsba(imap.components.floor
Floor
p3333
(dp3334
g29
I01
sg30
g131
sg32
(imap.components.point
Point
p3335
(dp3336
g35
I13
sg36
I1
sbsba(imap.components.floor
Floor
p3337
(dp3338
g29
I01
sg30
g131
sg32
(imap.components.point
Point
p3339
(dp3340
g35
I13
sg36
I2
sbsba(imap.components.floor
Floor
p3341
(dp3342
g29
I01
sg30
g131
sg32
(imap.components.point
Point
p3343
(dp3344
g35
I13
sg36
I3
sbsba(imap.components.wall
Wall
p3345
(dp3346
g29
I00
sg30
g41
sg32
(imap.components.point
Point
p3347
(dp3348
g35
I13
sg36
I4
sbsba(imap.components.floor
Floor
p3349
(dp3350
g29
I01
sg30
g131
sg32
(imap.components.point
Point
p3351
(dp3352
g35
I13
sg36
I5
sbsbag1159
ag1163
ag1167
ag1171
ag1175
ag1179
ag1183
ag1187
ag1191
ag1195
ag1199
ag1203
ag1207
ag1211
a(imap.components.floor
Floor
p3353
(dp3354
g29
I01
sg30
g131
sg32
(imap.components.point
Point
p3355
(dp3356
g35
I13
sg36
I20
sbsba(imap.components.wall
Wall
p3357
(dp3358
g29
I00
sg30
g41
sg32
(imap.components.point
Point
p3359
(dp3360
g35
I13
sg36
I21
sbsba(imap.components.floor
Floor
p3361
(dp3362
g29
I01
sg30
g131
sg32
(imap.components.point
Point
p3363
(dp3364
g35
I13
sg36
I22
sbsba(imap.components.wall
Wall
p3365
(dp3366
g29
I00
sg30
g41
sg32
(imap.components.point
Point
p3367
(dp3368
g35
I13
sg36
I23
sbsba(imap.components.floor
Floor
p3369
(dp3370
g29
I01
sg30
g131
sg32
(imap.components.point
Point
p3371
(dp3372
g35
I13
sg36
I24
sbsba(imap.components.floor
Floor
p3373
(dp3374
g29
I01
sg30
g131
sg32
(imap.components.point
Point
p3375
(dp3376
g35
I13
sg36
I25
sbsba(imap.components.door
Door
p3377
(dp3378
g29
I01
sg30
g172
sg32
(imap.components.point
Point
p3379
(dp3380
g35
I13
sg36
I26
sbsba(imap.components.floor
Floor
p3381
(dp3382
g29
I01
sg30
g131
sg32
(imap.components.point
Point
p3383
(dp3384
g35
I13
sg36
I27
sbsba(imap.components.wall
Wall
p3385
(dp3386
g29
I00
sg30
g41
sg32
(imap.components.point
Point
p3387
(dp3388
g35
I13
sg36
I28
sbsba(imap.components.floor
Floor
p3389
(dp3390
g29
I01
sg30
g131
sg32
(imap.components.point
Point
p3391
(dp3392
g35
I13
sg36
I29
sbsba(imap.components.wall
Wall
p3393
(dp3394
g29
I00
sg30
g41
sg32
(imap.components.point
Point
p3395
(dp3396
g35
I13
sg36
I30
sbsba(imap.components.floor
Floor
p3397
(dp3398
g29
I01
sg30
g131
sg32
(imap.components.point
Point
p3399
(dp3400
g35
I13
sg36
I31
sbsba(imap.components.floor
Floor
p3401
(dp3402
g29
I01
sg30
g131
sg32
(imap.components.point
Point
p3403
(dp3404
g35
I13
sg36
I32
sbsba(imap.components.wall
Wall
p3405
(dp3406
g29
I00
sg30
g41
sg32
(imap.components.point
Point
p3407
(dp3408
g35
I13
sg36
I33
sbsba(imap.components.floor
Floor
p3409
(dp3410
g29
I01
sg30
g131
sg32
(imap.components.point
Point
p3411
(dp3412
g35
I13
sg36
I34
sbsba(imap.components.wall
Wall
p3413
(dp3414
g29
I00
sg30
g41
sg32
(imap.components.point
Point
p3415
(dp3416
g35
I13
sg36
I35
sbsba(imap.components.floor
Floor
p3417
(dp3418
g29
I01
sg30
g131
sg32
(imap.components.point
Point
p3419
(dp3420
g35
I13
sg36
I36
sbsba(imap.components.floor
Floor
p3421
(dp3422
g29
I01
sg30
g131
sg32
(imap.components.point
Point
p3423
(dp3424
g35
I13
sg36
I37
sbsba(imap.components.wall
Wall
p3425
(dp3426
g29
I00
sg30
g41
sg32
(imap.components.point
Point
p3427
(dp3428
g35
I13
sg36
I38
sbsba(imap.components.floor
Floor
p3429
(dp3430
g29
I01
sg30
g131
sg32
(imap.components.point
Point
p3431
(dp3432
g35
I13
sg36
I39
sbsba(imap.components.wall
Wall
p3433
(dp3434
g29
I00
sg30
g41
sg32
(imap.components.point
Point
p3435
(dp3436
g35
I13
sg36
I40
sbsba(imap.components.wall
Wall
p3437
(dp3438
g29
I00
sg30
g41
sg32
(imap.components.point
Point
p3439
(dp3440
g35
I14
sg36
I0
sbsba(imap.components.floor
Floor
p3441
(dp3442
g29
I01
sg30
g131
sg32
(imap.components.point
Point
p3443
(dp3444
g35
I14
sg36
I1
sbsba(imap.components.wall
Wall
p3445
(dp3446
g29
I00
sg30
g41
sg32
(imap.components.point
Point
p3447
(dp3448
g35
I14
sg36
I2
sbsba(imap.components.floor
Floor
p3449
(dp3450
g29
I01
sg30
g131
sg32
(imap.components.point
Point
p3451
(dp3452
g35
I14
sg36
I3
sbsba(imap.components.wall
Wall
p3453
(dp3454
g29
I00
sg30
g41
sg32
(imap.components.point
Point
p3455
(dp3456
g35
I14
sg36
I4
sbsba(imap.components.door
Door
p3457
(dp3458
g29
I01
sg30
g172
sg32
(imap.components.point
Point
p3459
(dp3460
g35
I14
sg36
I5
sbsbag1243
ag1247
ag1251
ag1255
ag1259
ag1263
ag1267
ag1271
ag1275
ag1279
ag1283
ag1287
ag1291
ag1295
a(imap.components.floor
Floor
p3461
(dp3462
g29
I01
sg30
g131
sg32
(imap.components.point
Point
p3463
(dp3464
g35
I14
sg36
I20
sbsba(imap.components.wall
Wall
p3465
(dp3466
g29
I00
sg30
g41
sg32
(imap.components.point
Point
p3467
(dp3468
g35
I14
sg36
I21
sbsba(imap.components.floor
Floor
p3469
(dp3470
g29
I01
sg30
g131
sg32
(imap.components.point
Point
p3471
(dp3472
g35
I14
sg36
I22
sbsba(imap.components.wall
Wall
p3473
(dp3474
g29
I00
sg30
g41
sg32
(imap.components.point
Point
p3475
(dp3476
g35
I14
sg36
I23
sbsba(imap.components.door
Door
p3477
(dp3478
g29
I01
sg30
g172
sg32
(imap.components.point
Point
p3479
(dp3480
g35
I14
sg36
I24
sbsba(imap.components.wall
Wall
p3481
(dp3482
g29
I00
sg30
g41
sg32
(imap.components.point
Point
p3483
(dp3484
g35
I14
sg36
I25
sbsba(imap.components.wall
Wall
p3485
(dp3486
g29
I00
sg30
g41
sg32
(imap.components.point
Point
p3487
(dp3488
g35
I14
sg36
I26
sbsba(imap.components.wall
Wall
p3489
(dp3490
g29
I00
sg30
g41
sg32
(imap.components.point
Point
p3491
(dp3492
g35
I14
sg36
I27
sbsba(imap.components.wall
Wall
p3493
(dp3494
g29
I00
sg30
g41
sg32
(imap.components.point
Point
p3495
(dp3496
g35
I14
sg36
I28
sbsba(imap.components.floor
Floor
p3497
(dp3498
g29
I01
sg30
g131
sg32
(imap.components.point
Point
p3499
(dp3500
g35
I14
sg36
I29
sbsba(imap.components.wall
Wall
p3501
(dp3502
g29
I00
sg30
g41
sg32
(imap.components.point
Point
p3503
(dp3504
g35
I14
sg36
I30
sbsba(imap.components.wall
Wall
p3505
(dp3506
g29
I00
sg30
g41
sg32
(imap.components.point
Point
p3507
(dp3508
g35
I14
sg36
I31
sbsba(imap.components.wall
Wall
p3509
(dp3510
g29
I00
sg30
g41
sg32
(imap.components.point
Point
p3511
(dp3512
g35
I14
sg36
I32
sbsba(imap.components.wall
Wall
p3513
(dp3514
g29
I00
sg30
g41
sg32
(imap.components.point
Point
p3515
(dp3516
g35
I14
sg36
I33
sbsba(imap.components.door
Door
p3517
(dp3518
g29
I01
sg30
g172
sg32
(imap.components.point
Point
p3519
(dp3520
g35
I14
sg36
I34
sbsba(imap.components.wall
Wall
p3521
(dp3522
g29
I00
sg30
g41
sg32
(imap.components.point
Point
p3523
(dp3524
g35
I14
sg36
I35
sbsba(imap.components.wall
Wall
p3525
(dp3526
g29
I00
sg30
g41
sg32
(imap.components.point
Point
p3527
(dp3528
g35
I14
sg36
I36
sbsba(imap.components.wall
Wall
p3529
(dp3530
g29
I00
sg30
g41
sg32
(imap.components.point
Point
p3531
(dp3532
g35
I14
sg36
I37
sbsba(imap.components.wall
Wall
p3533
(dp3534
g29
I00
sg30
g41
sg32
(imap.components.point
Point
p3535
(dp3536
g35
I14
sg36
I38
sbsba(imap.components.floor
Floor
p3537
(dp3538
g29
I01
sg30
g131
sg32
(imap.components.point
Point
p3539
(dp3540
g35
I14
sg36
I39
sbsba(imap.components.wall
Wall
p3541
(dp3542
g29
I00
sg30
g41
sg32
(imap.components.point
Point
p3543
(dp3544
g35
I14
sg36
I40
sbsba(imap.components.wall
Wall
p3545
(dp3546
g29
I00
sg30
g41
sg32
(imap.components.point
Point
p3547
(dp3548
g35
I15
sg36
I0
sbsba(imap.components.floor
Floor
p3549
(dp3550
g29
I01
sg30
g131
sg32
(imap.components.point
Point
p3551
(dp3552
g35
I15
sg36
I1
sbsba(imap.components.wall
Wall
p3553
(dp3554
g29
I00
sg30
g41
sg32
(imap.components.point
Point
p3555
(dp3556
g35
I15
sg36
I2
sbsba(imap.components.wall
Wall
p3557
(dp3558
g29
I00
sg30
g41
sg32
(imap.components.point
Point
p3559
(dp3560
g35
I15
sg36
I3
sbsba(imap.components.wall
Wall
p3561
(dp3562
g29
I00
sg30
g41
sg32
(imap.components.point
Point
p3563
(dp3564
g35
I15
sg36
I4
sbsba(imap.components.floor
Floor
p3565
(dp3566
g29
I01
sg30
g131
sg32
(imap.components.point
Point
p3567
(dp3568
g35
I15
sg36
I5
sbsbag1327
ag1331
ag1335
ag1339
ag1343
ag1347
ag1351
ag1355
ag1359
ag1363
ag1367
ag1371
ag1375
ag1379
a(imap.components.floor
Floor
p3569
(dp3570
g29
I01
sg30
g131
sg32
(imap.components.point
Point
p3571
(dp3572
g35
I15
sg36
I20
sbsba(imap.components.wall
Wall
p3573
(dp3574
g29
I00
sg30
g41
sg32
(imap.components.point
Point
p3575
(dp3576
g35
I15
sg36
I21
sbsba(imap.components.floor
Floor
p3577
(dp3578
g29
I01
sg30
g131
sg32
(imap.components.point
Point
p3579
(dp3580
g35
I15
sg36
I22
sbsba(imap.components.floor
Floor
p3581
(dp3582
g29
I01
sg30
g131
sg32
(imap.components.point
Point
p3583
(dp3584
g35
I15
sg36
I23
sbsba(imap.components.floor
Floor
p3585
(dp3586
g29
I01
sg30
g131
sg32
(imap.components.point
Point
p3587
(dp3588
g35
I15
sg36
I24
sbsba(imap.components.floor
Floor
p3589
(dp3590
g29
I01
sg30
g131
sg32
(imap.components.point
Point
p3591
(dp3592
g35
I15
sg36
I25
sbsba(imap.components.floor
Floor
p3593
(dp3594
g29
I01
sg30
g131
sg32
(imap.components.point
Point
p3595
(dp3596
g35
I15
sg36
I26
sbsba(imap.components.floor
Floor
p3597
(dp3598
g29
I01
sg30
g131
sg32
(imap.components.point
Point
p3599
(dp3600
g35
I15
sg36
I27
sbsba(imap.components.door
Door
p3601
(dp3602
g29
I01
sg30
g172
sg32
(imap.components.point
Point
p3603
(dp3604
g35
I15
sg36
I28
sbsba(imap.components.floor
Floor
p3605
(dp3606
g29
I01
sg30
g131
sg32
(imap.components.point
Point
p3607
(dp3608
g35
I15
sg36
I29
sbsba(imap.components.door
Door
p3609
(dp3610
g29
I01
sg30
g172
sg32
(imap.components.point
Point
p3611
(dp3612
g35
I15
sg36
I30
sbsba(imap.components.floor
Floor
p3613
(dp3614
g29
I01
sg30
g131
sg32
(imap.components.point
Point
p3615
(dp3616
g35
I15
sg36
I31
sbsba(imap.components.floor
Floor
p3617
(dp3618
g29
I01
sg30
g131
sg32
(imap.components.point
Point
p3619
(dp3620
g35
I15
sg36
I32
sbsba(imap.components.wall
Wall
p3621
(dp3622
g29
I00
sg30
g41
sg32
(imap.components.point
Point
p3623
(dp3624
g35
I15
sg36
I33
sbsba(imap.components.floor
Floor
p3625
(dp3626
g29
I01
sg30
g131
sg32
(imap.components.point
Point
p3627
(dp3628
g35
I15
sg36
I34
sbsba(imap.components.floor
Floor
p3629
(dp3630
g29
I01
sg30
g131
sg32
(imap.components.point
Point
p3631
(dp3632
g35
I15
sg36
I35
sbsba(imap.components.floor
Floor
p3633
(dp3634
g29
I01
sg30
g131
sg32
(imap.components.point
Point
p3635
(dp3636
g35
I15
sg36
I36
sbsba(imap.components.floor
Floor
p3637
(dp3638
g29
I01
sg30
g131
sg32
(imap.components.point
Point
p3639
(dp3640
g35
I15
sg36
I37
sbsba(imap.components.door
Door
p3641
(dp3642
g29
I01
sg30
g172
sg32
(imap.components.point
Point
p3643
(dp3644
g35
I15
sg36
I38
sbsba(imap.components.floor
Floor
p3645
(dp3646
g29
I01
sg30
g131
sg32
(imap.components.point
Point
p3647
(dp3648
g35
I15
sg36
I39
sbsba(imap.components.wall
Wall
p3649
(dp3650
g29
I00
sg30
g41
sg32
(imap.components.point
Point
p3651
(dp3652
g35
I15
sg36
I40
sbsba(imap.components.wall
Wall
p3653
(dp3654
g29
I00
sg30
g41
sg32
(imap.components.point
Point
p3655
(dp3656
g35
I16
sg36
I0
sbsba(imap.components.floor
Floor
p3657
(dp3658
g29
I01
sg30
g131
sg32
(imap.components.point
Point
p3659
(dp3660
g35
I16
sg36
I1
sbsba(imap.components.floor
Floor
p3661
(dp3662
g29
I01
sg30
g131
sg32
(imap.components.point
Point
p3663
(dp3664
g35
I16
sg36
I2
sbsba(imap.components.floor
Floor
p3665
(dp3666
g29
I01
sg30
g131
sg32
(imap.components.point
Point
p3667
(dp3668
g35
I16
sg36
I3
sbsba(imap.components.floor
Floor
p3669
(dp3670
g29
I01
sg30
g131
sg32
(imap.components.point
Point
p3671
(dp3672
g35
I16
sg36
I4
sbsba(imap.components.floor
Floor
p3673
(dp3674
g29
I01
sg30
g131
sg32
(imap.components.point
Point
p3675
(dp3676
g35
I16
sg36
I5
sbsbag1411
ag1415
ag1419
ag1423
ag1427
ag1431
ag1435
ag1439
a(imap.components.floor
Floor
p3677
(dp3678
g29
I01
sg30
g131
sg32
(imap.components.point
Point
p3679
(dp3680
g35
I16
sg36
I14
sbsba(imap.components.wall
Wall
p3681
(dp3682
g29
I00
sg30
g41
sg32
(imap.components.point
Point
p3683
(dp3684
g35
I16
sg36
I15
sbsba(imap.components.floor
Floor
p3685
(dp3686
g29
I01
sg30
g131
sg32
(imap.components.point
Point
p3687
(dp3688
g35
I16
sg36
I16
sbsba(imap.components.floor
Floor
p3689
(dp3690
g29
I01
sg30
g131
sg32
(imap.components.point
Point
p3691
(dp3692
g35
I16
sg36
I17
sbsba(imap.components.floor
Floor
p3693
(dp3694
g29
I01
sg30
g131
sg32
(imap.components.point
Point
p3695
(dp3696
g35
I16
sg36
I18
sbsba(imap.components.floor
Floor
p3697
(dp3698
g29
I01
sg30
g131
sg32
(imap.components.point
Point
p3699
(dp3700
g35
I16
sg36
I19
sbsba(imap.components.floor
Floor
p3701
(dp3702
g29
I01
sg30
g131
sg32
(imap.components.point
Point
p3703
(dp3704
g35
I16
sg36
I20
sbsba(imap.components.wall
Wall
p3705
(dp3706
g29
I00
sg30
g41
sg32
(imap.components.point
Point
p3707
(dp3708
g35
I16
sg36
I21
sbsba(imap.components.door
Door
p3709
(dp3710
g29
I01
sg30
g172
sg32
(imap.components.point
Point
p3711
(dp3712
g35
I16
sg36
I22
sbsba(imap.components.wall
Wall
p3713
(dp3714
g29
I00
sg30
g41
sg32
(imap.components.point
Point
p3715
(dp3716
g35
I16
sg36
I23
sbsba(imap.components.door
Door
p3717
(dp3718
g29
I01
sg30
g172
sg32
(imap.components.point
Point
p3719
(dp3720
g35
I16
sg36
I24
sbsba(imap.components.wall
Wall
p3721
(dp3722
g29
I00
sg30
g41
sg32
(imap.components.point
Point
p3723
(dp3724
g35
I16
sg36
I25
sbsba(imap.components.wall
Wall
p3725
(dp3726
g29
I00
sg30
g41
sg32
(imap.components.point
Point
p3727
(dp3728
g35
I16
sg36
I26
sbsba(imap.components.wall
Wall
p3729
(dp3730
g29
I00
sg30
g41
sg32
(imap.components.point
Point
p3731
(dp3732
g35
I16
sg36
I27
sbsba(imap.components.wall
Wall
p3733
(dp3734
g29
I00
sg30
g41
sg32
(imap.components.point
Point
p3735
(dp3736
g35
I16
sg36
I28
sbsba(imap.components.door
Door
p3737
(dp3738
g29
I01
sg30
g172
sg32
(imap.components.point
Point
p3739
(dp3740
g35
I16
sg36
I29
sbsba(imap.components.wall
Wall
p3741
(dp3742
g29
I00
sg30
g41
sg32
(imap.components.point
Point
p3743
(dp3744
g35
I16
sg36
I30
sbsba(imap.components.wall
Wall
p3745
(dp3746
g29
I00
sg30
g41
sg32
(imap.components.point
Point
p3747
(dp3748
g35
I16
sg36
I31
sbsba(imap.components.floor
Floor
p3749
(dp3750
g29
I01
sg30
g131
sg32
(imap.components.point
Point
p3751
(dp3752
g35
I16
sg36
I32
sbsba(imap.components.wall
Wall
p3753
(dp3754
g29
I00
sg30
g41
sg32
(imap.components.point
Point
p3755
(dp3756
g35
I16
sg36
I33
sbsba(imap.components.floor
Floor
p3757
(dp3758
g29
I01
sg30
g131
sg32
(imap.components.point
Point
p3759
(dp3760
g35
I16
sg36
I34
sbsba(imap.components.floor
Floor
p3761
(dp3762
g29
I01
sg30
g131
sg32
(imap.components.point
Point
p3763
(dp3764
g35
I16
sg36
I35
sbsba(imap.components.floor
Floor
p3765
(dp3766
g29
I01
sg30
g131
sg32
(imap.components.point
Point
p3767
(dp3768
g35
I16
sg36
I36
sbsba(imap.components.floor
Floor
p3769
(dp3770
g29
I01
sg30
g131
sg32
(imap.components.point
Point
p3771
(dp3772
g35
I16
sg36
I37
sbsba(imap.components.wall
Wall
p3773
(dp3774
g29
I00
sg30
g41
sg32
(imap.components.point
Point
p3775
(dp3776
g35
I16
sg36
I38
sbsba(imap.components.door
Door
p3777
(dp3778
g29
I01
sg30
g172
sg32
(imap.components.point
Point
p3779
(dp3780
g35
I16
sg36
I39
sbsba(imap.components.wall
Wall
p3781
(dp3782
g29
I00
sg30
g41
sg32
(imap.components.point
Point
p3783
(dp3784
g35
I16
sg36
I40
sbsbag1471
ag1475
ag1479
ag1483
ag1487
ag1491
ag1495
ag1499
ag1503
ag1507
ag1511
ag1515
ag1519
ag1523
a(imap.components.floor
Floor
p3785
(dp3786
g29
I01
sg30
g131
sg32
(imap.components.point
Point
p3787
(dp3788
g35
I17
sg36
I14
sbsba(imap.components.wall
Wall
p3789
(dp3790
g29
I00
sg30
g41
sg32
(imap.components.point
Point
p3791
(dp3792
g35
I17
sg36
I15
sbsba(imap.components.floor
Floor
p3793
(dp3794
g29
I01
sg30
g131
sg32
(imap.components.point
Point
p3795
(dp3796
g35
I17
sg36
I16
sbsba(imap.components.wall
Wall
p3797
(dp3798
g29
I00
sg30
g41
sg32
(imap.components.point
Point
p3799
(dp3800
g35
I17
sg36
I17
sbsba(imap.components.floor
Floor
p3801
(dp3802
g29
I01
sg30
g131
sg32
(imap.components.point
Point
p3803
(dp3804
g35
I17
sg36
I18
sbsba(imap.components.floor
Floor
p3805
(dp3806
g29
I01
sg30
g131
sg32
(imap.components.point
Point
p3807
(dp3808
g35
I17
sg36
I19
sbsba(imap.components.floor
Floor
p3809
(dp3810
g29
I01
sg30
g131
sg32
(imap.components.point
Point
p3811
(dp3812
g35
I17
sg36
I20
sbsba(imap.components.wall
Wall
p3813
(dp3814
g29
I00
sg30
g41
sg32
(imap.components.point
Point
p3815
(dp3816
g35
I17
sg36
I21
sbsba(imap.components.floor
Floor
p3817
(dp3818
g29
I01
sg30
g131
sg32
(imap.components.point
Point
p3819
(dp3820
g35
I17
sg36
I22
sbsba(imap.components.wall
Wall
p3821
(dp3822
g29
I00
sg30
g41
sg32
(imap.components.point
Point
p3823
(dp3824
g35
I17
sg36
I23
sbsba(imap.components.floor
Floor
p3825
(dp3826
g29
I01
sg30
g131
sg32
(imap.components.point
Point
p3827
(dp3828
g35
I17
sg36
I24
sbsba(imap.components.floor
Floor
p3829
(dp3830
g29
I01
sg30
g131
sg32
(imap.components.point
Point
p3831
(dp3832
g35
I17
sg36
I25
sbsba(imap.components.floor
Floor
p3833
(dp3834
g29
I01
sg30
g131
sg32
(imap.components.point
Point
p3835
(dp3836
g35
I17
sg36
I26
sbsba(imap.components.wall
Wall
p3837
(dp3838
g29
I00
sg30
g41
sg32
(imap.components.point
Point
p3839
(dp3840
g35
I17
sg36
I27
sbsba(imap.components.floor
Floor
p3841
(dp3842
g29
I01
sg30
g131
sg32
(imap.components.point
Point
p3843
(dp3844
g35
I17
sg36
I28
sbsba(imap.components.floor
Floor
p3845
(dp3846
g29
I01
sg30
g131
sg32
(imap.components.point
Point
p3847
(dp3848
g35
I17
sg36
I29
sbsba(imap.components.floor
Floor
p3849
(dp3850
g29
I01
sg30
g131
sg32
(imap.components.point
Point
p3851
(dp3852
g35
I17
sg36
I30
sbsba(imap.components.wall
Wall
p3853
(dp3854
g29
I00
sg30
g41
sg32
(imap.components.point
Point
p3855
(dp3856
g35
I17
sg36
I31
sbsba(imap.components.floor
Floor
p3857
(dp3858
g29
I01
sg30
g131
sg32
(imap.components.point
Point
p3859
(dp3860
g35
I17
sg36
I32
sbsba(imap.components.wall
Wall
p3861
(dp3862
g29
I00
sg30
g41
sg32
(imap.components.point
Point
p3863
(dp3864
g35
I17
sg36
I33
sbsba(imap.components.wall
Wall
p3865
(dp3866
g29
I00
sg30
g41
sg32
(imap.components.point
Point
p3867
(dp3868
g35
I17
sg36
I34
sbsba(imap.components.wall
Wall
p3869
(dp3870
g29
I00
sg30
g41
sg32
(imap.components.point
Point
p3871
(dp3872
g35
I17
sg36
I35
sbsba(imap.components.wall
Wall
p3873
(dp3874
g29
I00
sg30
g41
sg32
(imap.components.point
Point
p3875
(dp3876
g35
I17
sg36
I36
sbsba(imap.components.wall
Wall
p3877
(dp3878
g29
I00
sg30
g41
sg32
(imap.components.point
Point
p3879
(dp3880
g35
I17
sg36
I37
sbsba(imap.components.wall
Wall
p3881
(dp3882
g29
I00
sg30
g41
sg32
(imap.components.point
Point
p3883
(dp3884
g35
I17
sg36
I38
sbsba(imap.components.floor
Floor
p3885
(dp3886
g29
I01
sg30
g131
sg32
(imap.components.point
Point
p3887
(dp3888
g35
I17
sg36
I39
sbsba(imap.components.wall
Wall
p3889
(dp3890
g29
I00
sg30
g41
sg32
(imap.components.point
Point
p3891
(dp3892
g35
I17
sg36
I40
sbsbag1555
ag1559
ag1563
ag1567
ag1571
ag1575
ag1579
ag1583
ag1587
ag1591
ag1595
ag1599
ag1603
ag1607
a(imap.components.floor
Floor
p3893
(dp3894
g29
I01
sg30
g131
sg32
(imap.components.point
Point
p3895
(dp3896
g35
I18
sg36
I14
sbsba(imap.components.floor
Floor
p3897
(dp3898
g29
I01
sg30
g131
sg32
(imap.components.point
Point
p3899
(dp3900
g35
I18
sg36
I15
sbsba(imap.components.floor
Floor
p3901
(dp3902
g29
I01
sg30
g131
sg32
(imap.components.point
Point
p3903
(dp3904
g35
I18
sg36
I16
sbsba(imap.components.wall
Wall
p3905
(dp3906
g29
I00
sg30
g41
sg32
(imap.components.point
Point
p3907
(dp3908
g35
I18
sg36
I17
sbsba(imap.components.wall
Wall
p3909
(dp3910
g29
I00
sg30
g41
sg32
(imap.components.point
Point
p3911
(dp3912
g35
I18
sg36
I18
sbsba(imap.components.wall
Wall
p3913
(dp3914
g29
I00
sg30
g41
sg32
(imap.components.point
Point
p3915
(dp3916
g35
I18
sg36
I19
sbsba(imap.components.wall
Wall
p3917
(dp3918
g29
I00
sg30
g41
sg32
(imap.components.point
Point
p3919
(dp3920
g35
I18
sg36
I20
sbsba(imap.components.wall
Wall
p3921
(dp3922
g29
I00
sg30
g41
sg32
(imap.components.point
Point
p3923
(dp3924
g35
I18
sg36
I21
sbsba(imap.components.floor
Floor
p3925
(dp3926
g29
I01
sg30
g131
sg32
(imap.components.point
Point
p3927
(dp3928
g35
I18
sg36
I22
sbsba(imap.components.wall
Wall
p3929
(dp3930
g29
I00
sg30
g41
sg32
(imap.components.point
Point
p3931
(dp3932
g35
I18
sg36
I23
sbsba(imap.components.floor
Floor
p3933
(dp3934
g29
I01
sg30
g131
sg32
(imap.components.point
Point
p3935
(dp3936
g35
I18
sg36
I24
sbsba(imap.components.wall
Wall
p3937
(dp3938
g29
I00
sg30
g41
sg32
(imap.components.point
Point
p3939
(dp3940
g35
I18
sg36
I25
sbsba(imap.components.wall
Wall
p3941
(dp3942
g29
I00
sg30
g41
sg32
(imap.components.point
Point
p3943
(dp3944
g35
I18
sg36
I26
sbsba(imap.components.wall
Wall
p3945
(dp3946
g29
I00
sg30
g41
sg32
(imap.components.point
Point
p3947
(dp3948
g35
I18
sg36
I27
sbsba(imap.components.wall
Wall
p3949
(dp3950
g29
I00
sg30
g41
sg32
(imap.components.point
Point
p3951
(dp3952
g35
I18
sg36
I28
sbsba(imap.components.wall
Wall
p3953
(dp3954
g29
I00
sg30
g41
sg32
(imap.components.point
Point
p3955
(dp3956
g35
I18
sg36
I29
sbsba(imap.components.floor
Floor
p3957
(dp3958
g29
I01
sg30
g131
sg32
(imap.components.point
Point
p3959
(dp3960
g35
I18
sg36
I30
sbsba(imap.components.door
Door
p3961
(dp3962
g29
I01
sg30
g172
sg32
(imap.components.point
Point
p3963
(dp3964
g35
I18
sg36
I31
sbsba(imap.components.floor
Floor
p3965
(dp3966
g29
I01
sg30
g131
sg32
(imap.components.point
Point
p3967
(dp3968
g35
I18
sg36
I32
sbsba(imap.components.wall
Wall
p3969
(dp3970
g29
I00
sg30
g41
sg32
(imap.components.point
Point
p3971
(dp3972
g35
I18
sg36
I33
sbsba(imap.components.floor
Floor
p3973
(dp3974
g29
I01
sg30
g131
sg32
(imap.components.point
Point
p3975
(dp3976
g35
I18
sg36
I34
sbsba(imap.components.floor
Floor
p3977
(dp3978
g29
I01
sg30
g131
sg32
(imap.components.point
Point
p3979
(dp3980
g35
I18
sg36
I35
sbsba(imap.components.floor
Floor
p3981
(dp3982
g29
I01
sg30
g131
sg32
(imap.components.point
Point
p3983
(dp3984
g35
I18
sg36
I36
sbsba(imap.components.floor
Floor
p3985
(dp3986
g29
I01
sg30
g131
sg32
(imap.components.point
Point
p3987
(dp3988
g35
I18
sg36
I37
sbsba(imap.components.floor
Floor
p3989
(dp3990
g29
I01
sg30
g131
sg32
(imap.components.point
Point
p3991
(dp3992
g35
I18
sg36
I38
sbsba(imap.components.floor
Floor
p3993
(dp3994
g29
I01
sg30
g131
sg32
(imap.components.point
Point
p3995
(dp3996
g35
I18
sg36
I39
sbsba(imap.components.wall
Wall
p3997
(dp3998
g29
I00
sg30
g41
sg32
(imap.components.point
Point
p3999
(dp4000
g35
I18
sg36
I40
sbsbag1639
ag1643
ag1647
ag1651
ag1655
ag1659
ag1663
ag1667
ag1671
ag1675
ag1679
ag1683
ag1687
ag1691
a(imap.components.door
Door
p4001
(dp4002
g29
I01
sg30
g172
sg32
(imap.components.point
Point
p4003
(dp4004
g35
I19
sg36
I14
sbsba(imap.components.wall
Wall
p4005
(dp4006
g29
I00
sg30
g41
sg32
(imap.components.point
Point
p4007
(dp4008
g35
I19
sg36
I15
sbsba(imap.components.wall
Wall
p4009
(dp4010
g29
I00
sg30
g41
sg32
(imap.components.point
Point
p4011
(dp4012
g35
I19
sg36
I16
sbsba(imap.components.wall
Wall
p4013
(dp4014
g29
I00
sg30
g41
sg32
(imap.components.point
Point
p4015
(dp4016
g35
I19
sg36
I17
sbsba(imap.components.floor
Floor
p4017
(dp4018
g29
I01
sg30
g131
sg32
(imap.components.point
Point
p4019
(dp4020
g35
I19
sg36
I18
sbsba(imap.components.floor
Floor
p4021
(dp4022
g29
I01
sg30
g131
sg32
(imap.components.point
Point
p4023
(dp4024
g35
I19
sg36
I19
sbsba(imap.components.wall
Wall
p4025
(dp4026
g29
I00
sg30
g41
sg32
(imap.components.point
Point
p4027
(dp4028
g35
I19
sg36
I20
sbsba(imap.components.floor
Floor
p4029
(dp4030
g29
I01
sg30
g131
sg32
(imap.components.point
Point
p4031
(dp4032
g35
I19
sg36
I21
sbsba(imap.components.floor
Floor
p4033
(dp4034
g29
I01
sg30
g131
sg32
(imap.components.point
Point
p4035
(dp4036
g35
I19
sg36
I22
sbsba(imap.components.wall
Wall
p4037
(dp4038
g29
I00
sg30
g41
sg32
(imap.components.point
Point
p4039
(dp4040
g35
I19
sg36
I23
sbsba(imap.components.floor
Floor
p4041
(dp4042
g29
I01
sg30
g131
sg32
(imap.components.point
Point
p4043
(dp4044
g35
I19
sg36
I24
sbsba(imap.components.floor
Floor
p4045
(dp4046
g29
I01
sg30
g131
sg32
(imap.components.point
Point
p4047
(dp4048
g35
I19
sg36
I25
sbsba(imap.components.wall
Wall
p4049
(dp4050
g29
I00
sg30
g41
sg32
(imap.components.point
Point
p4051
(dp4052
g35
I19
sg36
I26
sbsba(imap.components.floor
Floor
p4053
(dp4054
g29
I01
sg30
g131
sg32
(imap.components.point
Point
p4055
(dp4056
g35
I19
sg36
I27
sbsba(imap.components.wall
Wall
p4057
(dp4058
g29
I00
sg30
g41
sg32
(imap.components.point
Point
p4059
(dp4060
g35
I19
sg36
I28
sbsba(imap.components.floor
Floor
p4061
(dp4062
g29
I01
sg30
g131
sg32
(imap.components.point
Point
p4063
(dp4064
g35
I19
sg36
I29
sbsba(imap.components.floor
Floor
p4065
(dp4066
g29
I01
sg30
g131
sg32
(imap.components.point
Point
p4067
(dp4068
g35
I19
sg36
I30
sbsba(imap.components.wall
Wall
p4069
(dp4070
g29
I00
sg30
g41
sg32
(imap.components.point
Point
p4071
(dp4072
g35
I19
sg36
I31
sbsba(imap.components.door
Door
p4073
(dp4074
g29
I01
sg30
g172
sg32
(imap.components.point
Point
p4075
(dp4076
g35
I19
sg36
I32
sbsba(imap.components.wall
Wall
p4077
(dp4078
g29
I00
sg30
g41
sg32
(imap.components.point
Point
p4079
(dp4080
g35
I19
sg36
I33
sbsba(imap.components.wall
Wall
p4081
(dp4082
g29
I00
sg30
g41
sg32
(imap.components.point
Point
p4083
(dp4084
g35
I19
sg36
I34
sbsba(imap.components.wall
Wall
p4085
(dp4086
g29
I00
sg30
g41
sg32
(imap.components.point
Point
p4087
(dp4088
g35
I19
sg36
I35
sbsba(imap.components.wall
Wall
p4089
(dp4090
g29
I00
sg30
g41
sg32
(imap.components.point
Point
p4091
(dp4092
g35
I19
sg36
I36
sbsba(imap.components.wall
Wall
p4093
(dp4094
g29
I00
sg30
g41
sg32
(imap.components.point
Point
p4095
(dp4096
g35
I19
sg36
I37
sbsba(imap.components.wall
Wall
p4097
(dp4098
g29
I00
sg30
g41
sg32
(imap.components.point
Point
p4099
(dp4100
g35
I19
sg36
I38
sbsba(imap.components.wall
Wall
p4101
(dp4102
g29
I00
sg30
g41
sg32
(imap.components.point
Point
p4103
(dp4104
g35
I19
sg36
I39
sbsba(imap.components.wall
Wall
p4105
(dp4106
g29
I00
sg30
g41
sg32
(imap.components.point
Point
p4107
(dp4108
g35
I19
sg36
I40
sbsbag1723
ag1727
ag1731
ag1735
ag1739
ag1743
ag1747
ag1751
ag1755
ag1759
ag1763
ag1767
ag1771
ag1775
a(imap.components.floor
Floor
p4109
(dp4110
g29
I01
sg30
g131
sg32
(imap.components.point
Point
p4111
(dp4112
g35
I20
sg36
I14
sbsba(imap.components.floor
Floor
p4113
(dp4114
g29
I01
sg30
g131
sg32
(imap.components.point
Point
p4115
(dp4116
g35
I20
sg36
I15
sbsba(imap.components.floor
Floor
p4117
(dp4118
g29
I01
sg30
g131
sg32
(imap.components.point
Point
p4119
(dp4120
g35
I20
sg36
I16
sbsba(imap.components.floor
Floor
p4121
(dp4122
g29
I01
sg30
g131
sg32
(imap.components.point
Point
p4123
(dp4124
g35
I20
sg36
I17
sbsba(imap.components.floor
Floor
p4125
(dp4126
g29
I01
sg30
g131
sg32
(imap.components.point
Point
p4127
(dp4128
g35
I20
sg36
I18
sbsba(imap.components.floor
Floor
p4129
(dp4130
g29
I01
sg30
g131
sg32
(imap.components.point
Point
p4131
(dp4132
g35
I20
sg36
I19
sbsba(imap.components.wall
Wall
p4133
(dp4134
g29
I00
sg30
g41
sg32
(imap.components.point
Point
p4135
(dp4136
g35
I20
sg36
I20
sbsba(imap.components.floor
Floor
p4137
(dp4138
g29
I01
sg30
g131
sg32
(imap.components.point
Point
p4139
(dp4140
g35
I20
sg36
I21
sbsba(imap.components.wall
Wall
p4141
(dp4142
g29
I00
sg30
g41
sg32
(imap.components.point
Point
p4143
(dp4144
g35
I20
sg36
I22
sbsba(imap.components.wall
Wall
p4145
(dp4146
g29
I00
sg30
g41
sg32
(imap.components.point
Point
p4147
(dp4148
g35
I20
sg36
I23
sbsba(imap.components.floor
Floor
p4149
(dp4150
g29
I01
sg30
g131
sg32
(imap.components.point
Point
p4151
(dp4152
g35
I20
sg36
I24
sbsba(imap.components.floor
Floor
p4153
(dp4154
g29
I01
sg30
g131
sg32
(imap.components.point
Point
p4155
(dp4156
g35
I20
sg36
I25
sbsba(imap.components.wall
Wall
p4157
(dp4158
g29
I00
sg30
g41
sg32
(imap.components.point
Point
p4159
(dp4160
g35
I20
sg36
I26
sbsba(imap.components.floor
Floor
p4161
(dp4162
g29
I01
sg30
g131
sg32
(imap.components.point
Point
p4163
(dp4164
g35
I20
sg36
I27
sbsba(imap.components.wall
Wall
p4165
(dp4166
g29
I00
sg30
g41
sg32
(imap.components.point
Point
p4167
(dp4168
g35
I20
sg36
I28
sbsba(imap.components.floor
Floor
p4169
(dp4170
g29
I01
sg30
g131
sg32
(imap.components.point
Point
p4171
(dp4172
g35
I20
sg36
I29
sbsba(imap.components.wall
Wall
p4173
(dp4174
g29
I00
sg30
g41
sg32
(imap.components.point
Point
p4175
(dp4176
g35
I20
sg36
I30
sbsba(imap.components.wall
Wall
p4177
(dp4178
g29
I00
sg30
g41
sg32
(imap.components.point
Point
p4179
(dp4180
g35
I20
sg36
I31
sbsba(imap.components.floor
Floor
p4181
(dp4182
g29
I01
sg30
g131
sg32
(imap.components.point
Point
p4183
(dp4184
g35
I20
sg36
I32
sbsba(imap.components.floor
Floor
p4185
(dp4186
g29
I01
sg30
g131
sg32
(imap.components.point
Point
p4187
(dp4188
g35
I20
sg36
I33
sbsba(imap.components.floor
Floor
p4189
(dp4190
g29
I01
sg30
g131
sg32
(imap.components.point
Point
p4191
(dp4192
g35
I20
sg36
I34
sbsba(imap.components.wall
Wall
p4193
(dp4194
g29
I00
sg30
g41
sg32
(imap.components.point
Point
p4195
(dp4196
g35
I20
sg36
I35
sbsba(imap.components.floor
Floor
p4197
(dp4198
g29
I01
sg30
g131
sg32
(imap.components.point
Point
p4199
(dp4200
g35
I20
sg36
I36
sbsba(imap.components.floor
Floor
p4201
(dp4202
g29
I01
sg30
g131
sg32
(imap.components.point
Point
p4203
(dp4204
g35
I20
sg36
I37
sbsba(imap.components.floor
Floor
p4205
(dp4206
g29
I01
sg30
g131
sg32
(imap.components.point
Point
p4207
(dp4208
g35
I20
sg36
I38
sbsba(imap.components.floor
Floor
p4209
(dp4210
g29
I01
sg30
g131
sg32
(imap.components.point
Point
p4211
(dp4212
g35
I20
sg36
I39
sbsba(imap.components.wall
Wall
p4213
(dp4214
g29
I00
sg30
g41
sg32
(imap.components.point
Point
p4215
(dp4216
g35
I20
sg36
I40
sbsbag1807
ag1811
ag1815
ag1819
ag1823
ag1827
ag1831
ag1835
ag1839
ag1843
ag1847
ag1851
ag1855
ag1859
ag1863
ag1867
ag1871
ag1875
ag1879
ag1883
ag1887
a(imap.components.floor
Floor
p4217
(dp4218
g29
I01
sg30
g131
sg32
(imap.components.point
Point
p4219
(dp4220
g35
I21
sg36
I21
sbsba(imap.components.wall
Wall
p4221
(dp4222
g29
I00
sg30
g41
sg32
(imap.components.point
Point
p4223
(dp4224
g35
I21
sg36
I22
sbsba(imap.components.wall
Wall
p4225
(dp4226
g29
I00
sg30
g41
sg32
(imap.components.point
Point
p4227
(dp4228
g35
I21
sg36
I23
sbsba(imap.components.wall
Wall
p4229
(dp4230
g29
I00
sg30
g41
sg32
(imap.components.point
Point
p4231
(dp4232
g35
I21
sg36
I24
sbsba(imap.components.floor
Floor
p4233
(dp4234
g29
I01
sg30
g131
sg32
(imap.components.point
Point
p4235
(dp4236
g35
I21
sg36
I25
sbsba(imap.components.wall
Wall
p4237
(dp4238
g29
I00
sg30
g41
sg32
(imap.components.point
Point
p4239
(dp4240
g35
I21
sg36
I26
sbsba(imap.components.floor
Floor
p4241
(dp4242
g29
I01
sg30
g131
sg32
(imap.components.point
Point
p4243
(dp4244
g35
I21
sg36
I27
sbsba(imap.components.wall
Wall
p4245
(dp4246
g29
I00
sg30
g41
sg32
(imap.components.point
Point
p4247
(dp4248
g35
I21
sg36
I28
sbsba(imap.components.door
Door
p4249
(dp4250
g29
I01
sg30
g172
sg32
(imap.components.point
Point
p4251
(dp4252
g35
I21
sg36
I29
sbsba(imap.components.wall
Wall
p4253
(dp4254
g29
I00
sg30
g41
sg32
(imap.components.point
Point
p4255
(dp4256
g35
I21
sg36
I30
sbsba(imap.components.wall
Wall
p4257
(dp4258
g29
I00
sg30
g41
sg32
(imap.components.point
Point
p4259
(dp4260
g35
I21
sg36
I31
sbsba(imap.components.wall
Wall
p4261
(dp4262
g29
I00
sg30
g41
sg32
(imap.components.point
Point
p4263
(dp4264
g35
I21
sg36
I32
sbsba(imap.components.wall
Wall
p4265
(dp4266
g29
I00
sg30
g41
sg32
(imap.components.point
Point
p4267
(dp4268
g35
I21
sg36
I33
sbsba(imap.components.floor
Floor
p4269
(dp4270
g29
I01
sg30
g131
sg32
(imap.components.point
Point
p4271
(dp4272
g35
I21
sg36
I34
sbsba(imap.components.wall
Wall
p4273
(dp4274
g29
I00
sg30
g41
sg32
(imap.components.point
Point
p4275
(dp4276
g35
I21
sg36
I35
sbsba(imap.components.floor
Floor
p4277
(dp4278
g29
I01
sg30
g131
sg32
(imap.components.point
Point
p4279
(dp4280
g35
I21
sg36
I36
sbsba(imap.components.wall
Wall
p4281
(dp4282
g29
I00
sg30
g41
sg32
(imap.components.point
Point
p4283
(dp4284
g35
I21
sg36
I37
sbsba(imap.components.floor
Floor
p4285
(dp4286
g29
I01
sg30
g131
sg32
(imap.components.point
Point
p4287
(dp4288
g35
I21
sg36
I38
sbsba(imap.components.floor
Floor
p4289
(dp4290
g29
I01
sg30
g131
sg32
(imap.components.point
Point
p4291
(dp4292
g35
I21
sg36
I39
sbsba(imap.components.exit
Exit
p4293
(dp4294
g29
I01
sg30
S'*'
p4295
sg32
(imap.components.point
Point
p4296
(dp4297
g35
I21
sg36
I40
sbsbag1891
ag1895
ag1899
ag1903
ag1907
ag1911
ag1915
ag1919
ag1923
ag1927
ag1931
ag1935
ag1939
ag1943
ag1947
ag1951
ag1955
ag1959
ag1963
ag1967
ag1971
a(imap.components.floor
Floor
p4298
(dp4299
g29
I01
sg30
g131
sg32
(imap.components.point
Point
p4300
(dp4301
g35
I22
sg36
I21
sbsba(imap.components.door
Door
p4302
(dp4303
g29
I01
sg30
g172
sg32
(imap.components.point
Point
p4304
(dp4305
g35
I22
sg36
I22
sbsba(imap.components.floor
Floor
p4306
(dp4307
g29
I01
sg30
g131
sg32
(imap.components.point
Point
p4308
(dp4309
g35
I22
sg36
I23
sbsba(imap.components.floor
Floor
p4310
(dp4311
g29
I01
sg30
g131
sg32
(imap.components.point
Point
p4312
(dp4313
g35
I22
sg36
I24
sbsba(imap.components.floor
Floor
p4314
(dp4315
g29
I01
sg30
g131
sg32
(imap.components.point
Point
p4316
(dp4317
g35
I22
sg36
I25
sbsba(imap.components.wall
Wall
p4318
(dp4319
g29
I00
sg30
g41
sg32
(imap.components.point
Point
p4320
(dp4321
g35
I22
sg36
I26
sbsba(imap.components.floor
Floor
p4322
(dp4323
g29
I01
sg30
g131
sg32
(imap.components.point
Point
p4324
(dp4325
g35
I22
sg36
I27
sbsba(imap.components.floor
Floor
p4326
(dp4327
g29
I01
sg30
g131
sg32
(imap.components.point
Point
p4328
(dp4329
g35
I22
sg36
I28
sbsba(imap.components.floor
Floor
p4330
(dp4331
g29
I01
sg30
g131
sg32
(imap.components.point
Point
p4332
(dp4333
g35
I22
sg36
I29
sbsba(imap.components.floor
Floor
p4334
(dp4335
g29
I01
sg30
g131
sg32
(imap.components.point
Point
p4336
(dp4337
g35
I22
sg36
I30
sbsba(imap.components.floor
Floor
p4338
(dp4339
g29
I01
sg30
g131
sg32
(imap.components.point
Point
p4340
(dp4341
g35
I22
sg36
I31
sbsba(imap.components.floor
Floor
p4342
(dp4343
g29
I01
sg30
g131
sg32
(imap.components.point
Point
p4344
(dp4345
g35
I22
sg36
I32
sbsba(imap.components.wall
Wall
p4346
(dp4347
g29
I00
sg30
g41
sg32
(imap.components.point
Point
p4348
(dp4349
g35
I22
sg36
I33
sbsba(imap.components.floor
Floor
p4350
(dp4351
g29
I01
sg30
g131
sg32
(imap.components.point
Point
p4352
(dp4353
g35
I22
sg36
I34
sbsba(imap.components.door
Door
p4354
(dp4355
g29
I01
sg30
g172
sg32
(imap.components.point
Point
p4356
(dp4357
g35
I22
sg36
I35
sbsba(imap.components.floor
Floor
p4358
(dp4359
g29
I01
sg30
g131
sg32
(imap.components.point
Point
p4360
(dp4361
g35
I22
sg36
I36
sbsba(imap.components.wall
Wall
p4362
(dp4363
g29
I00
sg30
g41
sg32
(imap.components.point
Point
p4364
(dp4365
g35
I22
sg36
I37
sbsba(imap.components.wall
Wall
p4366
(dp4367
g29
I00
sg30
g41
sg32
(imap.components.point
Point
p4368
(dp4369
g35
I22
sg36
I38
sbsba(imap.components.wall
Wall
p4370
(dp4371
g29
I00
sg30
g41
sg32
(imap.components.point
Point
p4372
(dp4373
g35
I22
sg36
I39
sbsba(imap.components.wall
Wall
p4374
(dp4375
g29
I00
sg30
g41
sg32
(imap.components.point
Point
p4376
(dp4377
g35
I22
sg36
I40
sbsbag1975
ag1979
ag1983
ag1987
ag1991
ag1995
ag1999
ag2003
ag2007
ag2011
ag2015
ag2019
ag2023
ag2027
ag2031
ag2035
ag2039
ag2043
ag2047
ag2051
ag2055
a(imap.components.wall
Wall
p4378
(dp4379
g29
I00
sg30
g41
sg32
(imap.components.point
Point
p4380
(dp4381
g35
I23
sg36
I21
sbsba(imap.components.wall
Wall
p4382
(dp4383
g29
I00
sg30
g41
sg32
(imap.components.point
Point
p4384
(dp4385
g35
I23
sg36
I22
sbsba(imap.components.wall
Wall
p4386
(dp4387
g29
I00
sg30
g41
sg32
(imap.components.point
Point
p4388
(dp4389
g35
I23
sg36
I23
sbsba(imap.components.wall
Wall
p4390
(dp4391
g29
I00
sg30
g41
sg32
(imap.components.point
Point
p4392
(dp4393
g35
I23
sg36
I24
sbsba(imap.components.wall
Wall
p4394
(dp4395
g29
I00
sg30
g41
sg32
(imap.components.point
Point
p4396
(dp4397
g35
I23
sg36
I25
sbsba(imap.components.wall
Wall
p4398
(dp4399
g29
I00
sg30
g41
sg32
(imap.components.point
Point
p4400
(dp4401
g35
I23
sg36
I26
sbsba(imap.components.wall
Wall
p4402
(dp4403
g29
I00
sg30
g41
sg32
(imap.components.point
Point
p4404
(dp4405
g35
I23
sg36
I27
sbsba(imap.components.wall
Wall
p4406
(dp4407
g29
I00
sg30
g41
sg32
(imap.components.point
Point
p4408
(dp4409
g35
I23
sg36
I28
sbsba(imap.components.wall
Wall
p4410
(dp4411
g29
I00
sg30
g41
sg32
(imap.components.point
Point
p4412
(dp4413
g35
I23
sg36
I29
sbsba(imap.components.wall
Wall
p4414
(dp4415
g29
I00
sg30
g41
sg32
(imap.components.point
Point
p4416
(dp4417
g35
I23
sg36
I30
sbsba(imap.components.wall
Wall
p4418
(dp4419
g29
I00
sg30
g41
sg32
(imap.components.point
Point
p4420
(dp4421
g35
I23
sg36
I31
sbsba(imap.components.wall
Wall
p4422
(dp4423
g29
I00
sg30
g41
sg32
(imap.components.point
Point
p4424
(dp4425
g35
I23
sg36
I32
sbsba(imap.components.wall
Wall
p4426
(dp4427
g29
I00
sg30
g41
sg32
(imap.components.point
Point
p4428
(dp4429
g35
I23
sg36
I33
sbsba(imap.components.wall
Wall
p4430
(dp4431
g29
I00
sg30
g41
sg32
(imap.components.point
Point
p4432
(dp4433
g35
I23
sg36
I34
sbsba(imap.components.wall
Wall
p4434
(dp4435
g29
I00
sg30
g41
sg32
(imap.components.point
Point
p4436
(dp4437
g35
I23
sg36
I35
sbsba(imap.components.wall
Wall
p4438
(dp4439
g29
I00
sg30
g41
sg32
(imap.components.point
Point
p4440
(dp4441
g35
I23
sg36
I36
sbsba(imap.components.wall
Wall
p4442
(dp4443
g29
I00
sg30
g41
sg32
(imap.components.point
Point
p4444
(dp4445
g35
I23
sg36
I37
sbsba(imap.components.wall
Wall
p4446
(dp4447
g29
I00
sg30
g41
sg32
(imap.components.point
Point
p4448
(dp4449
g35
I23
sg36
I38
sbsba(imap.components.wall
Wall
p4450
(dp4451
g29
I00
sg30
g41
sg32
(imap.components.point
Point
p4452
(dp4453
g35
I23
sg36
I39
sbsba(imap.components.wall
Wall
p4454
(dp4455
g29
I00
sg30
g41
sg32
(imap.components.point
Point
p4456
(dp4457
g35
I23
sg36
I40
sbsbasbsS'_name'
p4458
S'Maricota'
p4459
sbsS'prison'
p4460
(igame
Game
p4461
(dp4462
g23
(igame_map
GameMap
p4463
(dp4464
g26
(imap.components.robot
Robot
p4465
(dp4466
g29
I00
sg30
S'@'
p4467
sg32
(imap.components.point
Point
p4468
(dp4469
g35
I11
sg36
I3
sbsbsg37
(lp4470
(imap.components.wall
Wall
p4471
(dp4472
g29
I00
sg30
S'O'
p4473
sg32
(imap.components.point
Point
p4474
(dp4475
g35
I0
sg36
I0
sbsba(imap.components.wall
Wall
p4476
(dp4477
g29
I00
sg30
g4473
sg32
(imap.components.point
Point
p4478
(dp4479
g35
I0
sg36
I1
sbsba(imap.components.wall
Wall
p4480
(dp4481
g29
I00
sg30
g4473
sg32
(imap.components.point
Point
p4482
(dp4483
g35
I0
sg36
I2
sbsba(imap.components.wall
Wall
p4484
(dp4485
g29
I00
sg30
g4473
sg32
(imap.components.point
Point
p4486
(dp4487
g35
I0
sg36
I3
sbsba(imap.components.wall
Wall
p4488
(dp4489
g29
I00
sg30
g4473
sg32
(imap.components.point
Point
p4490
(dp4491
g35
I0
sg36
I4
sbsba(imap.components.wall
Wall
p4492
(dp4493
g29
I00
sg30
g4473
sg32
(imap.components.point
Point
p4494
(dp4495
g35
I1
sg36
I0
sbsba(imap.components.floor
Floor
p4496
(dp4497
g29
I01
sg30
S' '
p4498
sg32
(imap.components.point
Point
p4499
(dp4500
g35
I1
sg36
I1
sbsba(imap.components.wall
Wall
p4501
(dp4502
g29
I00
sg30
g4473
sg32
(imap.components.point
Point
p4503
(dp4504
g35
I1
sg36
I2
sbsba(imap.components.floor
Floor
p4505
(dp4506
g29
I01
sg30
g4498
sg32
(imap.components.point
Point
p4507
(dp4508
g35
I1
sg36
I3
sbsba(imap.components.door
Door
p4509
(dp4510
g29
I01
sg30
S'.'
p4511
sg32
(imap.components.point
Point
p4512
(dp4513
g35
I1
sg36
I4
sbsba(imap.components.wall
Wall
p4514
(dp4515
g29
I00
sg30
g4473
sg32
(imap.components.point
Point
p4516
(dp4517
g35
I2
sg36
I0
sbsba(imap.components.door
Door
p4518
(dp4519
g29
I01
sg30
g4511
sg32
(imap.components.point
Point
p4520
(dp4521
g35
I2
sg36
I1
sbsba(imap.components.wall
Wall
p4522
(dp4523
g29
I00
sg30
g4473
sg32
(imap.components.point
Point
p4524
(dp4525
g35
I2
sg36
I2
sbsba(imap.components.floor
Floor
p4526
(dp4527
g29
I01
sg30
g4498
sg32
(imap.components.point
Point
p4528
(dp4529
g35
I2
sg36
I3
sbsba(imap.components.wall
Wall
p4530
(dp4531
g29
I00
sg30
g4473
sg32
(imap.components.point
Point
p4532
(dp4533
g35
I2
sg36
I4
sbsba(imap.components.wall
Wall
p4534
(dp4535
g29
I00
sg30
g4473
sg32
(imap.components.point
Point
p4536
(dp4537
g35
I3
sg36
I0
sbsba(imap.components.floor
Floor
p4538
(dp4539
g29
I01
sg30
g4498
sg32
(imap.components.point
Point
p4540
(dp4541
g35
I3
sg36
I1
sbsba(imap.components.wall
Wall
p4542
(dp4543
g29
I00
sg30
g4473
sg32
(imap.components.point
Point
p4544
(dp4545
g35
I3
sg36
I2
sbsba(imap.components.floor
Floor
p4546
(dp4547
g29
I01
sg30
g4498
sg32
(imap.components.point
Point
p4548
(dp4549
g35
I3
sg36
I3
sbsba(imap.components.wall
Wall
p4550
(dp4551
g29
I00
sg30
g4473
sg32
(imap.components.point
Point
p4552
(dp4553
g35
I3
sg36
I4
sbsba(imap.components.wall
Wall
p4554
(dp4555
g29
I00
sg30
g4473
sg32
(imap.components.point
Point
p4556
(dp4557
g35
I4
sg36
I0
sbsba(imap.components.door
Door
p4558
(dp4559
g29
I01
sg30
g4511
sg32
(imap.components.point
Point
p4560
(dp4561
g35
I4
sg36
I1
sbsba(imap.components.wall
Wall
p4562
(dp4563
g29
I00
sg30
g4473
sg32
(imap.components.point
Point
p4564
(dp4565
g35
I4
sg36
I2
sbsba(imap.components.floor
Floor
p4566
(dp4567
g29
I01
sg30
g4498
sg32
(imap.components.point
Point
p4568
(dp4569
g35
I4
sg36
I3
sbsba(imap.components.wall
Wall
p4570
(dp4571
g29
I00
sg30
g4473
sg32
(imap.components.point
Point
p4572
(dp4573
g35
I4
sg36
I4
sbsba(imap.components.wall
Wall
p4574
(dp4575
g29
I00
sg30
g4473
sg32
(imap.components.point
Point
p4576
(dp4577
g35
I5
sg36
I0
sbsba(imap.components.floor
Floor
p4578
(dp4579
g29
I01
sg30
g4498
sg32
(imap.components.point
Point
p4580
(dp4581
g35
I5
sg36
I1
sbsba(imap.components.wall
Wall
p4582
(dp4583
g29
I00
sg30
g4473
sg32
(imap.components.point
Point
p4584
(dp4585
g35
I5
sg36
I2
sbsba(imap.components.floor
Floor
p4586
(dp4587
g29
I01
sg30
g4498
sg32
(imap.components.point
Point
p4588
(dp4589
g35
I5
sg36
I3
sbsba(imap.components.wall
Wall
p4590
(dp4591
g29
I00
sg30
g4473
sg32
(imap.components.point
Point
p4592
(dp4593
g35
I5
sg36
I4
sbsba(imap.components.wall
Wall
p4594
(dp4595
g29
I00
sg30
g4473
sg32
(imap.components.point
Point
p4596
(dp4597
g35
I6
sg36
I0
sbsba(imap.components.floor
Floor
p4598
(dp4599
g29
I01
sg30
g4498
sg32
(imap.components.point
Point
p4600
(dp4601
g35
I6
sg36
I1
sbsba(imap.components.wall
Wall
p4602
(dp4603
g29
I00
sg30
g4473
sg32
(imap.components.point
Point
p4604
(dp4605
g35
I6
sg36
I2
sbsba(imap.components.floor
Floor
p4606
(dp4607
g29
I01
sg30
g4498
sg32
(imap.components.point
Point
p4608
(dp4609
g35
I6
sg36
I3
sbsba(imap.components.wall
Wall
p4610
(dp4611
g29
I00
sg30
g4473
sg32
(imap.components.point
Point
p4612
(dp4613
g35
I6
sg36
I4
sbsba(imap.components.wall
Wall
p4614
(dp4615
g29
I00
sg30
g4473
sg32
(imap.components.point
Point
p4616
(dp4617
g35
I7
sg36
I0
sbsba(imap.components.floor
Floor
p4618
(dp4619
g29
I01
sg30
g4498
sg32
(imap.components.point
Point
p4620
(dp4621
g35
I7
sg36
I1
sbsba(imap.components.wall
Wall
p4622
(dp4623
g29
I00
sg30
g4473
sg32
(imap.components.point
Point
p4624
(dp4625
g35
I7
sg36
I2
sbsba(imap.components.floor
Floor
p4626
(dp4627
g29
I01
sg30
g4498
sg32
(imap.components.point
Point
p4628
(dp4629
g35
I7
sg36
I3
sbsba(imap.components.wall
Wall
p4630
(dp4631
g29
I00
sg30
g4473
sg32
(imap.components.point
Point
p4632
(dp4633
g35
I7
sg36
I4
sbsba(imap.components.wall
Wall
p4634
(dp4635
g29
I00
sg30
g4473
sg32
(imap.components.point
Point
p4636
(dp4637
g35
I8
sg36
I0
sbsba(imap.components.door
Door
p4638
(dp4639
g29
I01
sg30
g4511
sg32
(imap.components.point
Point
p4640
(dp4641
g35
I8
sg36
I1
sbsba(imap.components.wall
Wall
p4642
(dp4643
g29
I00
sg30
g4473
sg32
(imap.components.point
Point
p4644
(dp4645
g35
I8
sg36
I2
sbsba(imap.components.floor
Floor
p4646
(dp4647
g29
I01
sg30
g4498
sg32
(imap.components.point
Point
p4648
(dp4649
g35
I8
sg36
I3
sbsba(imap.components.door
Door
p4650
(dp4651
g29
I01
sg30
g4511
sg32
(imap.components.point
Point
p4652
(dp4653
g35
I8
sg36
I4
sbsba(imap.components.wall
Wall
p4654
(dp4655
g29
I00
sg30
g4473
sg32
(imap.components.point
Point
p4656
(dp4657
g35
I9
sg36
I0
sbsba(imap.components.floor
Floor
p4658
(dp4659
g29
I01
sg30
g4498
sg32
(imap.components.point
Point
p4660
(dp4661
g35
I9
sg36
I1
sbsba(imap.components.wall
Wall
p4662
(dp4663
g29
I00
sg30
g4473
sg32
(imap.components.point
Point
p4664
(dp4665
g35
I9
sg36
I2
sbsba(imap.components.floor
Floor
p4666
(dp4667
g29
I01
sg30
g4498
sg32
(imap.components.point
Point
p4668
(dp4669
g35
I9
sg36
I3
sbsba(imap.components.wall
Wall
p4670
(dp4671
g29
I00
sg30
g4473
sg32
(imap.components.point
Point
p4672
(dp4673
g35
I9
sg36
I4
sbsba(imap.components.wall
Wall
p4674
(dp4675
g29
I00
sg30
g4473
sg32
(imap.components.point
Point
p4676
(dp4677
g35
I10
sg36
I0
sbsba(imap.components.floor
Floor
p4678
(dp4679
g29
I01
sg30
g4498
sg32
(imap.components.point
Point
p4680
(dp4681
g35
I10
sg36
I1
sbsba(imap.components.wall
Wall
p4682
(dp4683
g29
I00
sg30
g4473
sg32
(imap.components.point
Point
p4684
(dp4685
g35
I10
sg36
I2
sbsba(imap.components.floor
Floor
p4686
(dp4687
g29
I01
sg30
g4498
sg32
(imap.components.point
Point
p4688
(dp4689
g35
I10
sg36
I3
sbsba(imap.components.wall
Wall
p4690
(dp4691
g29
I00
sg30
g4473
sg32
(imap.components.point
Point
p4692
(dp4693
g35
I10
sg36
I4
sbsba(imap.components.wall
Wall
p4694
(dp4695
g29
I00
sg30
g4473
sg32
(imap.components.point
Point
p4696
(dp4697
g35
I11
sg36
I0
sbsba(imap.components.floor
Floor
p4698
(dp4699
g29
I01
sg30
g4498
sg32
(imap.components.point
Point
p4700
(dp4701
g35
I11
sg36
I1
sbsba(imap.components.wall
Wall
p4702
(dp4703
g29
I00
sg30
g4473
sg32
(imap.components.point
Point
p4704
(dp4705
g35
I11
sg36
I2
sbsba(imap.components.door
Door
p4706
(dp4707
g29
I01
sg30
g4511
sg32
(imap.components.point
Point
p4708
(dp4709
g35
I11
sg36
I3
sbsba(imap.components.wall
Wall
p4710
(dp4711
g29
I00
sg30
g4473
sg32
(imap.components.point
Point
p4712
(dp4713
g35
I11
sg36
I4
sbsba(imap.components.wall
Wall
p4714
(dp4715
g29
I00
sg30
g4473
sg32
(imap.components.point
Point
p4716
(dp4717
g35
I12
sg36
I0
sbsba(imap.components.door
Door
p4718
(dp4719
g29
I01
sg30
g4511
sg32
(imap.components.point
Point
p4720
(dp4721
g35
I12
sg36
I1
sbsba(imap.components.wall
Wall
p4722
(dp4723
g29
I00
sg30
g4473
sg32
(imap.components.point
Point
p4724
(dp4725
g35
I12
sg36
I2
sbsba(imap.components.floor
Floor
p4726
(dp4727
g29
I01
sg30
g4498
sg32
(imap.components.point
Point
p4728
(dp4729
g35
I12
sg36
I3
sbsba(imap.components.door
Door
p4730
(dp4731
g29
I01
sg30
g4511
sg32
(imap.components.point
Point
p4732
(dp4733
g35
I12
sg36
I4
sbsba(imap.components.wall
Wall
p4734
(dp4735
g29
I00
sg30
g4473
sg32
(imap.components.point
Point
p4736
(dp4737
g35
I13
sg36
I0
sbsba(imap.components.floor
Floor
p4738
(dp4739
g29
I01
sg30
g4498
sg32
(imap.components.point
Point
p4740
(dp4741
g35
I13
sg36
I1
sbsba(imap.components.wall
Wall
p4742
(dp4743
g29
I00
sg30
g4473
sg32
(imap.components.point
Point
p4744
(dp4745
g35
I13
sg36
I2
sbsba(imap.components.floor
Floor
p4746
(dp4747
g29
I01
sg30
g4498
sg32
(imap.components.point
Point
p4748
(dp4749
g35
I13
sg36
I3
sbsba(imap.components.wall
Wall
p4750
(dp4751
g29
I00
sg30
g4473
sg32
(imap.components.point
Point
p4752
(dp4753
g35
I13
sg36
I4
sbsba(imap.components.wall
Wall
p4754
(dp4755
g29
I00
sg30
g4473
sg32
(imap.components.point
Point
p4756
(dp4757
g35
I14
sg36
I0
sbsba(imap.components.floor
Floor
p4758
(dp4759
g29
I01
sg30
g4498
sg32
(imap.components.point
Point
p4760
(dp4761
g35
I14
sg36
I1
sbsba(imap.components.wall
Wall
p4762
(dp4763
g29
I00
sg30
g4473
sg32
(imap.components.point
Point
p4764
(dp4765
g35
I14
sg36
I2
sbsba(imap.components.floor
Floor
p4766
(dp4767
g29
I01
sg30
g4498
sg32
(imap.components.point
Point
p4768
(dp4769
g35
I14
sg36
I3
sbsba(imap.components.wall
Wall
p4770
(dp4771
g29
I00
sg30
g4473
sg32
(imap.components.point
Point
p4772
(dp4773
g35
I14
sg36
I4
sbsba(imap.components.wall
Wall
p4774
(dp4775
g29
I00
sg30
g4473
sg32
(imap.components.point
Point
p4776
(dp4777
g35
I15
sg36
I0
sbsba(imap.components.floor
Floor
p4778
(dp4779
g29
I01
sg30
g4498
sg32
(imap.components.point
Point
p4780
(dp4781
g35
I15
sg36
I1
sbsba(imap.components.wall
Wall
p4782
(dp4783
g29
I00
sg30
g4473
sg32
(imap.components.point
Point
p4784
(dp4785
g35
I15
sg36
I2
sbsba(imap.components.floor
Floor
p4786
(dp4787
g29
I01
sg30
g4498
sg32
(imap.components.point
Point
p4788
(dp4789
g35
I15
sg36
I3
sbsba(imap.components.wall
Wall
p4790
(dp4791
g29
I00
sg30
g4473
sg32
(imap.components.point
Point
p4792
(dp4793
g35
I15
sg36
I4
sbsba(imap.components.wall
Wall
p4794
(dp4795
g29
I00
sg30
g4473
sg32
(imap.components.point
Point
p4796
(dp4797
g35
I16
sg36
I0
sbsba(imap.components.floor
Floor
p4798
(dp4799
g29
I01
sg30
g4498
sg32
(imap.components.point
Point
p4800
(dp4801
g35
I16
sg36
I1
sbsba(imap.components.wall
Wall
p4802
(dp4803
g29
I00
sg30
g4473
sg32
(imap.components.point
Point
p4804
(dp4805
g35
I16
sg36
I2
sbsba(imap.components.floor
Floor
p4806
(dp4807
g29
I01
sg30
g4498
sg32
(imap.components.point
Point
p4808
(dp4809
g35
I16
sg36
I3
sbsba(imap.components.wall
Wall
p4810
(dp4811
g29
I00
sg30
g4473
sg32
(imap.components.point
Point
p4812
(dp4813
g35
I16
sg36
I4
sbsba(imap.components.wall
Wall
p4814
(dp4815
g29
I00
sg30
g4473
sg32
(imap.components.point
Point
p4816
(dp4817
g35
I17
sg36
I0
sbsba(imap.components.door
Door
p4818
(dp4819
g29
I01
sg30
g4511
sg32
(imap.components.point
Point
p4820
(dp4821
g35
I17
sg36
I1
sbsba(imap.components.wall
Wall
p4822
(dp4823
g29
I00
sg30
g4473
sg32
(imap.components.point
Point
p4824
(dp4825
g35
I17
sg36
I2
sbsba(imap.components.floor
Floor
p4826
(dp4827
g29
I01
sg30
g4498
sg32
(imap.components.point
Point
p4828
(dp4829
g35
I17
sg36
I3
sbsba(imap.components.wall
Wall
p4830
(dp4831
g29
I00
sg30
g4473
sg32
(imap.components.point
Point
p4832
(dp4833
g35
I17
sg36
I4
sbsba(imap.components.wall
Wall
p4834
(dp4835
g29
I00
sg30
g4473
sg32
(imap.components.point
Point
p4836
(dp4837
g35
I18
sg36
I0
sbsba(imap.components.floor
Floor
p4838
(dp4839
g29
I01
sg30
g4498
sg32
(imap.components.point
Point
p4840
(dp4841
g35
I18
sg36
I1
sbsba(imap.components.floor
Floor
p4842
(dp4843
g29
I01
sg30
g4498
sg32
(imap.components.point
Point
p4844
(dp4845
g35
I18
sg36
I2
sbsba(imap.components.floor
Floor
p4846
(dp4847
g29
I01
sg30
g4498
sg32
(imap.components.point
Point
p4848
(dp4849
g35
I18
sg36
I3
sbsba(imap.components.wall
Wall
p4850
(dp4851
g29
I00
sg30
g4473
sg32
(imap.components.point
Point
p4852
(dp4853
g35
I18
sg36
I4
sbsba(imap.components.wall
Wall
p4854
(dp4855
g29
I00
sg30
g4473
sg32
(imap.components.point
Point
p4856
(dp4857
g35
I19
sg36
I0
sbsba(imap.components.wall
Wall
p4858
(dp4859
g29
I00
sg30
g4473
sg32
(imap.components.point
Point
p4860
(dp4861
g35
I19
sg36
I1
sbsba(imap.components.wall
Wall
p4862
(dp4863
g29
I00
sg30
g4473
sg32
(imap.components.point
Point
p4864
(dp4865
g35
I19
sg36
I2
sbsba(imap.components.wall
Wall
p4866
(dp4867
g29
I00
sg30
g4473
sg32
(imap.components.point
Point
p4868
(dp4869
g35
I19
sg36
I3
sbsba(imap.components.wall
Wall
p4870
(dp4871
g29
I00
sg30
g4473
sg32
(imap.components.point
Point
p4872
(dp4873
g35
I19
sg36
I4
sbsbasbsg2059
I0
sg37
(igame_map
GameMap
p4874
(dp4875
g26
(imap.components.robot
Robot
p4876
(dp4877
g29
I00
sg30
g4467
sg32
g4468
sbsg37
(lp4878
g4471
ag4476
ag4480
ag4484
ag4488
a(imap.components.wall
Wall
p4879
(dp4880
g29
I00
sg30
g4473
sg32
(imap.components.point
Point
p4881
(dp4882
g35
I0
sg36
I5
sbsba(imap.components.wall
Wall
p4883
(dp4884
g29
I00
sg30
g4473
sg32
(imap.components.point
Point
p4885
(dp4886
g35
I0
sg36
I6
sbsba(imap.components.wall
Wall
p4887
(dp4888
g29
I00
sg30
g4473
sg32
(imap.components.point
Point
p4889
(dp4890
g35
I0
sg36
I7
sbsba(imap.components.wall
Wall
p4891
(dp4892
g29
I00
sg30
g4473
sg32
(imap.components.point
Point
p4893
(dp4894
g35
I0
sg36
I8
sbsba(imap.components.wall
Wall
p4895
(dp4896
g29
I00
sg30
g4473
sg32
(imap.components.point
Point
p4897
(dp4898
g35
I0
sg36
I9
sbsba(imap.components.wall
Wall
p4899
(dp4900
g29
I00
sg30
g4473
sg32
(imap.components.point
Point
p4901
(dp4902
g35
I0
sg36
I10
sbsba(imap.components.wall
Wall
p4903
(dp4904
g29
I00
sg30
g4473
sg32
(imap.components.point
Point
p4905
(dp4906
g35
I0
sg36
I11
sbsba(imap.components.wall
Wall
p4907
(dp4908
g29
I00
sg30
g4473
sg32
(imap.components.point
Point
p4909
(dp4910
g35
I0
sg36
I12
sbsba(imap.components.wall
Wall
p4911
(dp4912
g29
I00
sg30
g4473
sg32
(imap.components.point
Point
p4913
(dp4914
g35
I0
sg36
I13
sbsba(imap.components.wall
Wall
p4915
(dp4916
g29
I00
sg30
g4473
sg32
(imap.components.point
Point
p4917
(dp4918
g35
I0
sg36
I14
sbsba(imap.components.wall
Wall
p4919
(dp4920
g29
I00
sg30
g4473
sg32
(imap.components.point
Point
p4921
(dp4922
g35
I0
sg36
I15
sbsba(imap.components.wall
Wall
p4923
(dp4924
g29
I00
sg30
g4473
sg32
(imap.components.point
Point
p4925
(dp4926
g35
I0
sg36
I16
sbsba(imap.components.wall
Wall
p4927
(dp4928
g29
I00
sg30
g4473
sg32
(imap.components.point
Point
p4929
(dp4930
g35
I0
sg36
I17
sbsba(imap.components.wall
Wall
p4931
(dp4932
g29
I00
sg30
g4473
sg32
(imap.components.point
Point
p4933
(dp4934
g35
I0
sg36
I18
sbsba(imap.components.wall
Wall
p4935
(dp4936
g29
I00
sg30
g4473
sg32
(imap.components.point
Point
p4937
(dp4938
g35
I0
sg36
I19
sbsbag4492
ag4496
ag4501
ag4505
ag4509
a(imap.components.floor
Floor
p4939
(dp4940
g29
I01
sg30
g4498
sg32
(imap.components.point
Point
p4941
(dp4942
g35
I1
sg36
I5
sbsba(imap.components.wall
Wall
p4943
(dp4944
g29
I00
sg30
g4473
sg32
(imap.components.point
Point
p4945
(dp4946
g35
I1
sg36
I6
sbsba(imap.components.floor
Floor
p4947
(dp4948
g29
I01
sg30
g4498
sg32
(imap.components.point
Point
p4949
(dp4950
g35
I1
sg36
I7
sbsba(imap.components.floor
Floor
p4951
(dp4952
g29
I01
sg30
g4498
sg32
(imap.components.point
Point
p4953
(dp4954
g35
I1
sg36
I8
sbsba(imap.components.floor
Floor
p4955
(dp4956
g29
I01
sg30
g4498
sg32
(imap.components.point
Point
p4957
(dp4958
g35
I1
sg36
I9
sbsba(imap.components.floor
Floor
p4959
(dp4960
g29
I01
sg30
g4498
sg32
(imap.components.point
Point
p4961
(dp4962
g35
I1
sg36
I10
sbsba(imap.components.wall
Wall
p4963
(dp4964
g29
I00
sg30
g4473
sg32
(imap.components.point
Point
p4965
(dp4966
g35
I1
sg36
I11
sbsba(imap.components.floor
Floor
p4967
(dp4968
g29
I01
sg30
g4498
sg32
(imap.components.point
Point
p4969
(dp4970
g35
I1
sg36
I12
sbsba(imap.components.door
Door
p4971
(dp4972
g29
I01
sg30
g4511
sg32
(imap.components.point
Point
p4973
(dp4974
g35
I1
sg36
I13
sbsba(imap.components.floor
Floor
p4975
(dp4976
g29
I01
sg30
g4498
sg32
(imap.components.point
Point
p4977
(dp4978
g35
I1
sg36
I14
sbsba(imap.components.floor
Floor
p4979
(dp4980
g29
I01
sg30
g4498
sg32
(imap.components.point
Point
p4981
(dp4982
g35
I1
sg36
I15
sbsba(imap.components.floor
Floor
p4983
(dp4984
g29
I01
sg30
g4498
sg32
(imap.components.point
Point
p4985
(dp4986
g35
I1
sg36
I16
sbsba(imap.components.floor
Floor
p4987
(dp4988
g29
I01
sg30
g4498
sg32
(imap.components.point
Point
p4989
(dp4990
g35
I1
sg36
I17
sbsba(imap.components.floor
Floor
p4991
(dp4992
g29
I01
sg30
g4498
sg32
(imap.components.point
Point
p4993
(dp4994
g35
I1
sg36
I18
sbsba(imap.components.wall
Wall
p4995
(dp4996
g29
I00
sg30
g4473
sg32
(imap.components.point
Point
p4997
(dp4998
g35
I1
sg36
I19
sbsbag4514
ag4518
ag4522
ag4526
ag4530
a(imap.components.floor
Floor
p4999
(dp5000
g29
I01
sg30
g4498
sg32
(imap.components.point
Point
p5001
(dp5002
g35
I2
sg36
I5
sbsba(imap.components.wall
Wall
p5003
(dp5004
g29
I00
sg30
g4473
sg32
(imap.components.point
Point
p5005
(dp5006
g35
I2
sg36
I6
sbsba(imap.components.floor
Floor
p5007
(dp5008
g29
I01
sg30
g4498
sg32
(imap.components.point
Point
p5009
(dp5010
g35
I2
sg36
I7
sbsba(imap.components.floor
Floor
p5011
(dp5012
g29
I01
sg30
g4498
sg32
(imap.components.point
Point
p5013
(dp5014
g35
I2
sg36
I8
sbsba(imap.components.floor
Floor
p5015
(dp5016
g29
I01
sg30
g4498
sg32
(imap.components.point
Point
p5017
(dp5018
g35
I2
sg36
I9
sbsba(imap.components.floor
Floor
p5019
(dp5020
g29
I01
sg30
g4498
sg32
(imap.components.point
Point
p5021
(dp5022
g35
I2
sg36
I10
sbsba(imap.components.wall
Wall
p5023
(dp5024
g29
I00
sg30
g4473
sg32
(imap.components.point
Point
p5025
(dp5026
g35
I2
sg36
I11
sbsba(imap.components.floor
Floor
p5027
(dp5028
g29
I01
sg30
g4498
sg32
(imap.components.point
Point
p5029
(dp5030
g35
I2
sg36
I12
sbsba(imap.components.wall
Wall
p5031
(dp5032
g29
I00
sg30
g4473
sg32
(imap.components.point
Point
p5033
(dp5034
g35
I2
sg36
I13
sbsba(imap.components.floor
Floor
p5035
(dp5036
g29
I01
sg30
g4498
sg32
(imap.components.point
Point
p5037
(dp5038
g35
I2
sg36
I14
sbsba(imap.components.floor
Floor
p5039
(dp5040
g29
I01
sg30
g4498
sg32
(imap.components.point
Point
p5041
(dp5042
g35
I2
sg36
I15
sbsba(imap.components.floor
Floor
p5043
(dp5044
g29
I01
sg30
g4498
sg32
(imap.components.point
Point
p5045
(dp5046
g35
I2
sg36
I16
sbsba(imap.components.floor
Floor
p5047
(dp5048
g29
I01
sg30
g4498
sg32
(imap.components.point
Point
p5049
(dp5050
g35
I2
sg36
I17
sbsba(imap.components.floor
Floor
p5051
(dp5052
g29
I01
sg30
g4498
sg32
(imap.components.point
Point
p5053
(dp5054
g35
I2
sg36
I18
sbsba(imap.components.wall
Wall
p5055
(dp5056
g29
I00
sg30
g4473
sg32
(imap.components.point
Point
p5057
(dp5058
g35
I2
sg36
I19
sbsbag4534
ag4538
ag4542
ag4546
ag4550
a(imap.components.floor
Floor
p5059
(dp5060
g29
I01
sg30
g4498
sg32
(imap.components.point
Point
p5061
(dp5062
g35
I3
sg36
I5
sbsba(imap.components.wall
Wall
p5063
(dp5064
g29
I00
sg30
g4473
sg32
(imap.components.point
Point
p5065
(dp5066
g35
I3
sg36
I6
sbsba(imap.components.floor
Floor
p5067
(dp5068
g29
I01
sg30
g4498
sg32
(imap.components.point
Point
p5069
(dp5070
g35
I3
sg36
I7
sbsba(imap.components.floor
Floor
p5071
(dp5072
g29
I01
sg30
g4498
sg32
(imap.components.point
Point
p5073
(dp5074
g35
I3
sg36
I8
sbsba(imap.components.floor
Floor
p5075
(dp5076
g29
I01
sg30
g4498
sg32
(imap.components.point
Point
p5077
(dp5078
g35
I3
sg36
I9
sbsba(imap.components.floor
Floor
p5079
(dp5080
g29
I01
sg30
g4498
sg32
(imap.components.point
Point
p5081
(dp5082
g35
I3
sg36
I10
sbsba(imap.components.wall
Wall
p5083
(dp5084
g29
I00
sg30
g4473
sg32
(imap.components.point
Point
p5085
(dp5086
g35
I3
sg36
I11
sbsba(imap.components.floor
Floor
p5087
(dp5088
g29
I01
sg30
g4498
sg32
(imap.components.point
Point
p5089
(dp5090
g35
I3
sg36
I12
sbsba(imap.components.wall
Wall
p5091
(dp5092
g29
I00
sg30
g4473
sg32
(imap.components.point
Point
p5093
(dp5094
g35
I3
sg36
I13
sbsba(imap.components.floor
Floor
p5095
(dp5096
g29
I01
sg30
g4498
sg32
(imap.components.point
Point
p5097
(dp5098
g35
I3
sg36
I14
sbsba(imap.components.floor
Floor
p5099
(dp5100
g29
I01
sg30
g4498
sg32
(imap.components.point
Point
p5101
(dp5102
g35
I3
sg36
I15
sbsba(imap.components.floor
Floor
p5103
(dp5104
g29
I01
sg30
g4498
sg32
(imap.components.point
Point
p5105
(dp5106
g35
I3
sg36
I16
sbsba(imap.components.floor
Floor
p5107
(dp5108
g29
I01
sg30
g4498
sg32
(imap.components.point
Point
p5109
(dp5110
g35
I3
sg36
I17
sbsba(imap.components.floor
Floor
p5111
(dp5112
g29
I01
sg30
g4498
sg32
(imap.components.point
Point
p5113
(dp5114
g35
I3
sg36
I18
sbsba(imap.components.wall
Wall
p5115
(dp5116
g29
I00
sg30
g4473
sg32
(imap.components.point
Point
p5117
(dp5118
g35
I3
sg36
I19
sbsbag4554
ag4558
ag4562
ag4566
ag4570
a(imap.components.floor
Floor
p5119
(dp5120
g29
I01
sg30
g4498
sg32
(imap.components.point
Point
p5121
(dp5122
g35
I4
sg36
I5
sbsba(imap.components.door
Door
p5123
(dp5124
g29
I01
sg30
g4511
sg32
(imap.components.point
Point
p5125
(dp5126
g35
I4
sg36
I6
sbsba(imap.components.floor
Floor
p5127
(dp5128
g29
I01
sg30
g4498
sg32
(imap.components.point
Point
p5129
(dp5130
g35
I4
sg36
I7
sbsba(imap.components.floor
Floor
p5131
(dp5132
g29
I01
sg30
g4498
sg32
(imap.components.point
Point
p5133
(dp5134
g35
I4
sg36
I8
sbsba(imap.components.floor
Floor
p5135
(dp5136
g29
I01
sg30
g4498
sg32
(imap.components.point
Point
p5137
(dp5138
g35
I4
sg36
I9
sbsba(imap.components.floor
Floor
p5139
(dp5140
g29
I01
sg30
g4498
sg32
(imap.components.point
Point
p5141
(dp5142
g35
I4
sg36
I10
sbsba(imap.components.wall
Wall
p5143
(dp5144
g29
I00
sg30
g4473
sg32
(imap.components.point
Point
p5145
(dp5146
g35
I4
sg36
I11
sbsba(imap.components.floor
Floor
p5147
(dp5148
g29
I01
sg30
g4498
sg32
(imap.components.point
Point
p5149
(dp5150
g35
I4
sg36
I12
sbsba(imap.components.wall
Wall
p5151
(dp5152
g29
I00
sg30
g4473
sg32
(imap.components.point
Point
p5153
(dp5154
g35
I4
sg36
I13
sbsba(imap.components.floor
Floor
p5155
(dp5156
g29
I01
sg30
g4498
sg32
(imap.components.point
Point
p5157
(dp5158
g35
I4
sg36
I14
sbsba(imap.components.floor
Floor
p5159
(dp5160
g29
I01
sg30
g4498
sg32
(imap.components.point
Point
p5161
(dp5162
g35
I4
sg36
I15
sbsba(imap.components.floor
Floor
p5163
(dp5164
g29
I01
sg30
g4498
sg32
(imap.components.point
Point
p5165
(dp5166
g35
I4
sg36
I16
sbsba(imap.components.floor
Floor
p5167
(dp5168
g29
I01
sg30
g4498
sg32
(imap.components.point
Point
p5169
(dp5170
g35
I4
sg36
I17
sbsba(imap.components.floor
Floor
p5171
(dp5172
g29
I01
sg30
g4498
sg32
(imap.components.point
Point
p5173
(dp5174
g35
I4
sg36
I18
sbsba(imap.components.wall
Wall
p5175
(dp5176
g29
I00
sg30
g4473
sg32
(imap.components.point
Point
p5177
(dp5178
g35
I4
sg36
I19
sbsbag4574
ag4578
ag4582
ag4586
ag4590
a(imap.components.floor
Floor
p5179
(dp5180
g29
I01
sg30
g4498
sg32
(imap.components.point
Point
p5181
(dp5182
g35
I5
sg36
I5
sbsba(imap.components.wall
Wall
p5183
(dp5184
g29
I00
sg30
g4473
sg32
(imap.components.point
Point
p5185
(dp5186
g35
I5
sg36
I6
sbsba(imap.components.wall
Wall
p5187
(dp5188
g29
I00
sg30
g4473
sg32
(imap.components.point
Point
p5189
(dp5190
g35
I5
sg36
I7
sbsba(imap.components.wall
Wall
p5191
(dp5192
g29
I00
sg30
g4473
sg32
(imap.components.point
Point
p5193
(dp5194
g35
I5
sg36
I8
sbsba(imap.components.wall
Wall
p5195
(dp5196
g29
I00
sg30
g4473
sg32
(imap.components.point
Point
p5197
(dp5198
g35
I5
sg36
I9
sbsba(imap.components.wall
Wall
p5199
(dp5200
g29
I00
sg30
g4473
sg32
(imap.components.point
Point
p5201
(dp5202
g35
I5
sg36
I10
sbsba(imap.components.wall
Wall
p5203
(dp5204
g29
I00
sg30
g4473
sg32
(imap.components.point
Point
p5205
(dp5206
g35
I5
sg36
I11
sbsba(imap.components.floor
Floor
p5207
(dp5208
g29
I01
sg30
g4498
sg32
(imap.components.point
Point
p5209
(dp5210
g35
I5
sg36
I12
sbsba(imap.components.wall
Wall
p5211
(dp5212
g29
I00
sg30
g4473
sg32
(imap.components.point
Point
p5213
(dp5214
g35
I5
sg36
I13
sbsba(imap.components.floor
Floor
p5215
(dp5216
g29
I01
sg30
g4498
sg32
(imap.components.point
Point
p5217
(dp5218
g35
I5
sg36
I14
sbsba(imap.components.floor
Floor
p5219
(dp5220
g29
I01
sg30
g4498
sg32
(imap.components.point
Point
p5221
(dp5222
g35
I5
sg36
I15
sbsba(imap.components.floor
Floor
p5223
(dp5224
g29
I01
sg30
g4498
sg32
(imap.components.point
Point
p5225
(dp5226
g35
I5
sg36
I16
sbsba(imap.components.floor
Floor
p5227
(dp5228
g29
I01
sg30
g4498
sg32
(imap.components.point
Point
p5229
(dp5230
g35
I5
sg36
I17
sbsba(imap.components.floor
Floor
p5231
(dp5232
g29
I01
sg30
g4498
sg32
(imap.components.point
Point
p5233
(dp5234
g35
I5
sg36
I18
sbsba(imap.components.wall
Wall
p5235
(dp5236
g29
I00
sg30
g4473
sg32
(imap.components.point
Point
p5237
(dp5238
g35
I5
sg36
I19
sbsbag4594
ag4598
ag4602
ag4606
ag4610
a(imap.components.floor
Floor
p5239
(dp5240
g29
I01
sg30
g4498
sg32
(imap.components.point
Point
p5241
(dp5242
g35
I6
sg36
I5
sbsba(imap.components.floor
Floor
p5243
(dp5244
g29
I01
sg30
g4498
sg32
(imap.components.point
Point
p5245
(dp5246
g35
I6
sg36
I6
sbsba(imap.components.floor
Floor
p5247
(dp5248
g29
I01
sg30
g4498
sg32
(imap.components.point
Point
p5249
(dp5250
g35
I6
sg36
I7
sbsba(imap.components.floor
Floor
p5251
(dp5252
g29
I01
sg30
g4498
sg32
(imap.components.point
Point
p5253
(dp5254
g35
I6
sg36
I8
sbsba(imap.components.floor
Floor
p5255
(dp5256
g29
I01
sg30
g4498
sg32
(imap.components.point
Point
p5257
(dp5258
g35
I6
sg36
I9
sbsba(imap.components.floor
Floor
p5259
(dp5260
g29
I01
sg30
g4498
sg32
(imap.components.point
Point
p5261
(dp5262
g35
I6
sg36
I10
sbsba(imap.components.floor
Floor
p5263
(dp5264
g29
I01
sg30
g4498
sg32
(imap.components.point
Point
p5265
(dp5266
g35
I6
sg36
I11
sbsba(imap.components.floor
Floor
p5267
(dp5268
g29
I01
sg30
g4498
sg32
(imap.components.point
Point
p5269
(dp5270
g35
I6
sg36
I12
sbsba(imap.components.wall
Wall
p5271
(dp5272
g29
I00
sg30
g4473
sg32
(imap.components.point
Point
p5273
(dp5274
g35
I6
sg36
I13
sbsba(imap.components.floor
Floor
p5275
(dp5276
g29
I01
sg30
g4498
sg32
(imap.components.point
Point
p5277
(dp5278
g35
I6
sg36
I14
sbsba(imap.components.floor
Floor
p5279
(dp5280
g29
I01
sg30
g4498
sg32
(imap.components.point
Point
p5281
(dp5282
g35
I6
sg36
I15
sbsba(imap.components.floor
Floor
p5283
(dp5284
g29
I01
sg30
g4498
sg32
(imap.components.point
Point
p5285
(dp5286
g35
I6
sg36
I16
sbsba(imap.components.floor
Floor
p5287
(dp5288
g29
I01
sg30
g4498
sg32
(imap.components.point
Point
p5289
(dp5290
g35
I6
sg36
I17
sbsba(imap.components.floor
Floor
p5291
(dp5292
g29
I01
sg30
g4498
sg32
(imap.components.point
Point
p5293
(dp5294
g35
I6
sg36
I18
sbsba(imap.components.wall
Wall
p5295
(dp5296
g29
I00
sg30
g4473
sg32
(imap.components.point
Point
p5297
(dp5298
g35
I6
sg36
I19
sbsbag4614
ag4618
ag4622
ag4626
ag4630
a(imap.components.wall
Wall
p5299
(dp5300
g29
I00
sg30
g4473
sg32
(imap.components.point
Point
p5301
(dp5302
g35
I7
sg36
I5
sbsba(imap.components.wall
Wall
p5303
(dp5304
g29
I00
sg30
g4473
sg32
(imap.components.point
Point
p5305
(dp5306
g35
I7
sg36
I6
sbsba(imap.components.wall
Wall
p5307
(dp5308
g29
I00
sg30
g4473
sg32
(imap.components.point
Point
p5309
(dp5310
g35
I7
sg36
I7
sbsba(imap.components.wall
Wall
p5311
(dp5312
g29
I00
sg30
g4473
sg32
(imap.components.point
Point
p5313
(dp5314
g35
I7
sg36
I8
sbsba(imap.components.wall
Wall
p5315
(dp5316
g29
I00
sg30
g4473
sg32
(imap.components.point
Point
p5317
(dp5318
g35
I7
sg36
I9
sbsba(imap.components.wall
Wall
p5319
(dp5320
g29
I00
sg30
g4473
sg32
(imap.components.point
Point
p5321
(dp5322
g35
I7
sg36
I10
sbsba(imap.components.wall
Wall
p5323
(dp5324
g29
I00
sg30
g4473
sg32
(imap.components.point
Point
p5325
(dp5326
g35
I7
sg36
I11
sbsba(imap.components.wall
Wall
p5327
(dp5328
g29
I00
sg30
g4473
sg32
(imap.components.point
Point
p5329
(dp5330
g35
I7
sg36
I12
sbsba(imap.components.wall
Wall
p5331
(dp5332
g29
I00
sg30
g4473
sg32
(imap.components.point
Point
p5333
(dp5334
g35
I7
sg36
I13
sbsba(imap.components.floor
Floor
p5335
(dp5336
g29
I01
sg30
g4498
sg32
(imap.components.point
Point
p5337
(dp5338
g35
I7
sg36
I14
sbsba(imap.components.floor
Floor
p5339
(dp5340
g29
I01
sg30
g4498
sg32
(imap.components.point
Point
p5341
(dp5342
g35
I7
sg36
I15
sbsba(imap.components.floor
Floor
p5343
(dp5344
g29
I01
sg30
g4498
sg32
(imap.components.point
Point
p5345
(dp5346
g35
I7
sg36
I16
sbsba(imap.components.floor
Floor
p5347
(dp5348
g29
I01
sg30
g4498
sg32
(imap.components.point
Point
p5349
(dp5350
g35
I7
sg36
I17
sbsba(imap.components.floor
Floor
p5351
(dp5352
g29
I01
sg30
g4498
sg32
(imap.components.point
Point
p5353
(dp5354
g35
I7
sg36
I18
sbsba(imap.components.wall
Wall
p5355
(dp5356
g29
I00
sg30
g4473
sg32
(imap.components.point
Point
p5357
(dp5358
g35
I7
sg36
I19
sbsbag4634
ag4638
ag4642
ag4646
ag4650
a(imap.components.floor
Floor
p5359
(dp5360
g29
I01
sg30
g4498
sg32
(imap.components.point
Point
p5361
(dp5362
g35
I8
sg36
I5
sbsba(imap.components.floor
Floor
p5363
(dp5364
g29
I01
sg30
g4498
sg32
(imap.components.point
Point
p5365
(dp5366
g35
I8
sg36
I6
sbsba(imap.components.floor
Floor
p5367
(dp5368
g29
I01
sg30
g4498
sg32
(imap.components.point
Point
p5369
(dp5370
g35
I8
sg36
I7
sbsba(imap.components.floor
Floor
p5371
(dp5372
g29
I01
sg30
g4498
sg32
(imap.components.point
Point
p5373
(dp5374
g35
I8
sg36
I8
sbsba(imap.components.floor
Floor
p5375
(dp5376
g29
I01
sg30
g4498
sg32
(imap.components.point
Point
p5377
(dp5378
g35
I8
sg36
I9
sbsba(imap.components.floor
Floor
p5379
(dp5380
g29
I01
sg30
g4498
sg32
(imap.components.point
Point
p5381
(dp5382
g35
I8
sg36
I10
sbsba(imap.components.floor
Floor
p5383
(dp5384
g29
I01
sg30
g4498
sg32
(imap.components.point
Point
p5385
(dp5386
g35
I8
sg36
I11
sbsba(imap.components.floor
Floor
p5387
(dp5388
g29
I01
sg30
g4498
sg32
(imap.components.point
Point
p5389
(dp5390
g35
I8
sg36
I12
sbsba(imap.components.wall
Wall
p5391
(dp5392
g29
I00
sg30
g4473
sg32
(imap.components.point
Point
p5393
(dp5394
g35
I8
sg36
I13
sbsba(imap.components.floor
Floor
p5395
(dp5396
g29
I01
sg30
g4498
sg32
(imap.components.point
Point
p5397
(dp5398
g35
I8
sg36
I14
sbsba(imap.components.floor
Floor
p5399
(dp5400
g29
I01
sg30
g4498
sg32
(imap.components.point
Point
p5401
(dp5402
g35
I8
sg36
I15
sbsba(imap.components.floor
Floor
p5403
(dp5404
g29
I01
sg30
g4498
sg32
(imap.components.point
Point
p5405
(dp5406
g35
I8
sg36
I16
sbsba(imap.components.floor
Floor
p5407
(dp5408
g29
I01
sg30
g4498
sg32
(imap.components.point
Point
p5409
(dp5410
g35
I8
sg36
I17
sbsba(imap.components.floor
Floor
p5411
(dp5412
g29
I01
sg30
g4498
sg32
(imap.components.point
Point
p5413
(dp5414
g35
I8
sg36
I18
sbsba(imap.components.wall
Wall
p5415
(dp5416
g29
I00
sg30
g4473
sg32
(imap.components.point
Point
p5417
(dp5418
g35
I8
sg36
I19
sbsbag4654
ag4658
ag4662
ag4666
ag4670
a(imap.components.floor
Floor
p5419
(dp5420
g29
I01
sg30
g4498
sg32
(imap.components.point
Point
p5421
(dp5422
g35
I9
sg36
I5
sbsba(imap.components.floor
Floor
p5423
(dp5424
g29
I01
sg30
g4498
sg32
(imap.components.point
Point
p5425
(dp5426
g35
I9
sg36
I6
sbsba(imap.components.floor
Floor
p5427
(dp5428
g29
I01
sg30
g4498
sg32
(imap.components.point
Point
p5429
(dp5430
g35
I9
sg36
I7
sbsba(imap.components.floor
Floor
p5431
(dp5432
g29
I01
sg30
g4498
sg32
(imap.components.point
Point
p5433
(dp5434
g35
I9
sg36
I8
sbsba(imap.components.floor
Floor
p5435
(dp5436
g29
I01
sg30
g4498
sg32
(imap.components.point
Point
p5437
(dp5438
g35
I9
sg36
I9
sbsba(imap.components.floor
Floor
p5439
(dp5440
g29
I01
sg30
g4498
sg32
(imap.components.point
Point
p5441
(dp5442
g35
I9
sg36
I10
sbsba(imap.components.floor
Floor
p5443
(dp5444
g29
I01
sg30
g4498
sg32
(imap.components.point
Point
p5445
(dp5446
g35
I9
sg36
I11
sbsba(imap.components.floor
Floor
p5447
(dp5448
g29
I01
sg30
g4498
sg32
(imap.components.point
Point
p5449
(dp5450
g35
I9
sg36
I12
sbsba(imap.components.wall
Wall
p5451
(dp5452
g29
I00
sg30
g4473
sg32
(imap.components.point
Point
p5453
(dp5454
g35
I9
sg36
I13
sbsba(imap.components.floor
Floor
p5455
(dp5456
g29
I01
sg30
g4498
sg32
(imap.components.point
Point
p5457
(dp5458
g35
I9
sg36
I14
sbsba(imap.components.floor
Floor
p5459
(dp5460
g29
I01
sg30
g4498
sg32
(imap.components.point
Point
p5461
(dp5462
g35
I9
sg36
I15
sbsba(imap.components.floor
Floor
p5463
(dp5464
g29
I01
sg30
g4498
sg32
(imap.components.point
Point
p5465
(dp5466
g35
I9
sg36
I16
sbsba(imap.components.floor
Floor
p5467
(dp5468
g29
I01
sg30
g4498
sg32
(imap.components.point
Point
p5469
(dp5470
g35
I9
sg36
I17
sbsba(imap.components.floor
Floor
p5471
(dp5472
g29
I01
sg30
g4498
sg32
(imap.components.point
Point
p5473
(dp5474
g35
I9
sg36
I18
sbsba(imap.components.wall
Wall
p5475
(dp5476
g29
I00
sg30
g4473
sg32
(imap.components.point
Point
p5477
(dp5478
g35
I9
sg36
I19
sbsbag4674
ag4678
ag4682
ag4686
ag4690
a(imap.components.floor
Floor
p5479
(dp5480
g29
I01
sg30
g4498
sg32
(imap.components.point
Point
p5481
(dp5482
g35
I10
sg36
I5
sbsba(imap.components.floor
Floor
p5483
(dp5484
g29
I01
sg30
g4498
sg32
(imap.components.point
Point
p5485
(dp5486
g35
I10
sg36
I6
sbsba(imap.components.floor
Floor
p5487
(dp5488
g29
I01
sg30
g4498
sg32
(imap.components.point
Point
p5489
(dp5490
g35
I10
sg36
I7
sbsba(imap.components.floor
Floor
p5491
(dp5492
g29
I01
sg30
g4498
sg32
(imap.components.point
Point
p5493
(dp5494
g35
I10
sg36
I8
sbsba(imap.components.floor
Floor
p5495
(dp5496
g29
I01
sg30
g4498
sg32
(imap.components.point
Point
p5497
(dp5498
g35
I10
sg36
I9
sbsba(imap.components.floor
Floor
p5499
(dp5500
g29
I01
sg30
g4498
sg32
(imap.components.point
Point
p5501
(dp5502
g35
I10
sg36
I10
sbsba(imap.components.floor
Floor
p5503
(dp5504
g29
I01
sg30
g4498
sg32
(imap.components.point
Point
p5505
(dp5506
g35
I10
sg36
I11
sbsba(imap.components.floor
Floor
p5507
(dp5508
g29
I01
sg30
g4498
sg32
(imap.components.point
Point
p5509
(dp5510
g35
I10
sg36
I12
sbsba(imap.components.wall
Wall
p5511
(dp5512
g29
I00
sg30
g4473
sg32
(imap.components.point
Point
p5513
(dp5514
g35
I10
sg36
I13
sbsba(imap.components.floor
Floor
p5515
(dp5516
g29
I01
sg30
g4498
sg32
(imap.components.point
Point
p5517
(dp5518
g35
I10
sg36
I14
sbsba(imap.components.floor
Floor
p5519
(dp5520
g29
I01
sg30
g4498
sg32
(imap.components.point
Point
p5521
(dp5522
g35
I10
sg36
I15
sbsba(imap.components.floor
Floor
p5523
(dp5524
g29
I01
sg30
g4498
sg32
(imap.components.point
Point
p5525
(dp5526
g35
I10
sg36
I16
sbsba(imap.components.floor
Floor
p5527
(dp5528
g29
I01
sg30
g4498
sg32
(imap.components.point
Point
p5529
(dp5530
g35
I10
sg36
I17
sbsba(imap.components.floor
Floor
p5531
(dp5532
g29
I01
sg30
g4498
sg32
(imap.components.point
Point
p5533
(dp5534
g35
I10
sg36
I18
sbsba(imap.components.wall
Wall
p5535
(dp5536
g29
I00
sg30
g4473
sg32
(imap.components.point
Point
p5537
(dp5538
g35
I10
sg36
I19
sbsbag4694
ag4698
ag4702
ag4706
ag4710
a(imap.components.floor
Floor
p5539
(dp5540
g29
I01
sg30
g4498
sg32
(imap.components.point
Point
p5541
(dp5542
g35
I11
sg36
I5
sbsba(imap.components.floor
Floor
p5543
(dp5544
g29
I01
sg30
g4498
sg32
(imap.components.point
Point
p5545
(dp5546
g35
I11
sg36
I6
sbsba(imap.components.floor
Floor
p5547
(dp5548
g29
I01
sg30
g4498
sg32
(imap.components.point
Point
p5549
(dp5550
g35
I11
sg36
I7
sbsba(imap.components.floor
Floor
p5551
(dp5552
g29
I01
sg30
g4498
sg32
(imap.components.point
Point
p5553
(dp5554
g35
I11
sg36
I8
sbsba(imap.components.floor
Floor
p5555
(dp5556
g29
I01
sg30
g4498
sg32
(imap.components.point
Point
p5557
(dp5558
g35
I11
sg36
I9
sbsba(imap.components.floor
Floor
p5559
(dp5560
g29
I01
sg30
g4498
sg32
(imap.components.point
Point
p5561
(dp5562
g35
I11
sg36
I10
sbsba(imap.components.floor
Floor
p5563
(dp5564
g29
I01
sg30
g4498
sg32
(imap.components.point
Point
p5565
(dp5566
g35
I11
sg36
I11
sbsba(imap.components.floor
Floor
p5567
(dp5568
g29
I01
sg30
g4498
sg32
(imap.components.point
Point
p5569
(dp5570
g35
I11
sg36
I12
sbsba(imap.components.wall
Wall
p5571
(dp5572
g29
I00
sg30
g4473
sg32
(imap.components.point
Point
p5573
(dp5574
g35
I11
sg36
I13
sbsba(imap.components.floor
Floor
p5575
(dp5576
g29
I01
sg30
g4498
sg32
(imap.components.point
Point
p5577
(dp5578
g35
I11
sg36
I14
sbsba(imap.components.floor
Floor
p5579
(dp5580
g29
I01
sg30
g4498
sg32
(imap.components.point
Point
p5581
(dp5582
g35
I11
sg36
I15
sbsba(imap.components.floor
Floor
p5583
(dp5584
g29
I01
sg30
g4498
sg32
(imap.components.point
Point
p5585
(dp5586
g35
I11
sg36
I16
sbsba(imap.components.floor
Floor
p5587
(dp5588
g29
I01
sg30
g4498
sg32
(imap.components.point
Point
p5589
(dp5590
g35
I11
sg36
I17
sbsba(imap.components.floor
Floor
p5591
(dp5592
g29
I01
sg30
g4498
sg32
(imap.components.point
Point
p5593
(dp5594
g35
I11
sg36
I18
sbsba(imap.components.wall
Wall
p5595
(dp5596
g29
I00
sg30
g4473
sg32
(imap.components.point
Point
p5597
(dp5598
g35
I11
sg36
I19
sbsbag4714
ag4718
ag4722
ag4726
ag4730
a(imap.components.floor
Floor
p5599
(dp5600
g29
I01
sg30
g4498
sg32
(imap.components.point
Point
p5601
(dp5602
g35
I12
sg36
I5
sbsba(imap.components.floor
Floor
p5603
(dp5604
g29
I01
sg30
g4498
sg32
(imap.components.point
Point
p5605
(dp5606
g35
I12
sg36
I6
sbsba(imap.components.floor
Floor
p5607
(dp5608
g29
I01
sg30
g4498
sg32
(imap.components.point
Point
p5609
(dp5610
g35
I12
sg36
I7
sbsba(imap.components.floor
Floor
p5611
(dp5612
g29
I01
sg30
g4498
sg32
(imap.components.point
Point
p5613
(dp5614
g35
I12
sg36
I8
sbsba(imap.components.floor
Floor
p5615
(dp5616
g29
I01
sg30
g4498
sg32
(imap.components.point
Point
p5617
(dp5618
g35
I12
sg36
I9
sbsba(imap.components.floor
Floor
p5619
(dp5620
g29
I01
sg30
g4498
sg32
(imap.components.point
Point
p5621
(dp5622
g35
I12
sg36
I10
sbsba(imap.components.floor
Floor
p5623
(dp5624
g29
I01
sg30
g4498
sg32
(imap.components.point
Point
p5625
(dp5626
g35
I12
sg36
I11
sbsba(imap.components.floor
Floor
p5627
(dp5628
g29
I01
sg30
g4498
sg32
(imap.components.point
Point
p5629
(dp5630
g35
I12
sg36
I12
sbsba(imap.components.wall
Wall
p5631
(dp5632
g29
I00
sg30
g4473
sg32
(imap.components.point
Point
p5633
(dp5634
g35
I12
sg36
I13
sbsba(imap.components.floor
Floor
p5635
(dp5636
g29
I01
sg30
g4498
sg32
(imap.components.point
Point
p5637
(dp5638
g35
I12
sg36
I14
sbsba(imap.components.floor
Floor
p5639
(dp5640
g29
I01
sg30
g4498
sg32
(imap.components.point
Point
p5641
(dp5642
g35
I12
sg36
I15
sbsba(imap.components.floor
Floor
p5643
(dp5644
g29
I01
sg30
g4498
sg32
(imap.components.point
Point
p5645
(dp5646
g35
I12
sg36
I16
sbsba(imap.components.floor
Floor
p5647
(dp5648
g29
I01
sg30
g4498
sg32
(imap.components.point
Point
p5649
(dp5650
g35
I12
sg36
I17
sbsba(imap.components.floor
Floor
p5651
(dp5652
g29
I01
sg30
g4498
sg32
(imap.components.point
Point
p5653
(dp5654
g35
I12
sg36
I18
sbsba(imap.components.wall
Wall
p5655
(dp5656
g29
I00
sg30
g4473
sg32
(imap.components.point
Point
p5657
(dp5658
g35
I12
sg36
I19
sbsbag4734
ag4738
ag4742
ag4746
ag4750
a(imap.components.floor
Floor
p5659
(dp5660
g29
I01
sg30
g4498
sg32
(imap.components.point
Point
p5661
(dp5662
g35
I13
sg36
I5
sbsba(imap.components.floor
Floor
p5663
(dp5664
g29
I01
sg30
g4498
sg32
(imap.components.point
Point
p5665
(dp5666
g35
I13
sg36
I6
sbsba(imap.components.floor
Floor
p5667
(dp5668
g29
I01
sg30
g4498
sg32
(imap.components.point
Point
p5669
(dp5670
g35
I13
sg36
I7
sbsba(imap.components.floor
Floor
p5671
(dp5672
g29
I01
sg30
g4498
sg32
(imap.components.point
Point
p5673
(dp5674
g35
I13
sg36
I8
sbsba(imap.components.floor
Floor
p5675
(dp5676
g29
I01
sg30
g4498
sg32
(imap.components.point
Point
p5677
(dp5678
g35
I13
sg36
I9
sbsba(imap.components.floor
Floor
p5679
(dp5680
g29
I01
sg30
g4498
sg32
(imap.components.point
Point
p5681
(dp5682
g35
I13
sg36
I10
sbsba(imap.components.floor
Floor
p5683
(dp5684
g29
I01
sg30
g4498
sg32
(imap.components.point
Point
p5685
(dp5686
g35
I13
sg36
I11
sbsba(imap.components.floor
Floor
p5687
(dp5688
g29
I01
sg30
g4498
sg32
(imap.components.point
Point
p5689
(dp5690
g35
I13
sg36
I12
sbsba(imap.components.wall
Wall
p5691
(dp5692
g29
I00
sg30
g4473
sg32
(imap.components.point
Point
p5693
(dp5694
g35
I13
sg36
I13
sbsba(imap.components.floor
Floor
p5695
(dp5696
g29
I01
sg30
g4498
sg32
(imap.components.point
Point
p5697
(dp5698
g35
I13
sg36
I14
sbsba(imap.components.floor
Floor
p5699
(dp5700
g29
I01
sg30
g4498
sg32
(imap.components.point
Point
p5701
(dp5702
g35
I13
sg36
I15
sbsba(imap.components.floor
Floor
p5703
(dp5704
g29
I01
sg30
g4498
sg32
(imap.components.point
Point
p5705
(dp5706
g35
I13
sg36
I16
sbsba(imap.components.floor
Floor
p5707
(dp5708
g29
I01
sg30
g4498
sg32
(imap.components.point
Point
p5709
(dp5710
g35
I13
sg36
I17
sbsba(imap.components.floor
Floor
p5711
(dp5712
g29
I01
sg30
g4498
sg32
(imap.components.point
Point
p5713
(dp5714
g35
I13
sg36
I18
sbsba(imap.components.wall
Wall
p5715
(dp5716
g29
I00
sg30
g4473
sg32
(imap.components.point
Point
p5717
(dp5718
g35
I13
sg36
I19
sbsbag4754
ag4758
ag4762
ag4766
ag4770
a(imap.components.floor
Floor
p5719
(dp5720
g29
I01
sg30
g4498
sg32
(imap.components.point
Point
p5721
(dp5722
g35
I14
sg36
I5
sbsba(imap.components.floor
Floor
p5723
(dp5724
g29
I01
sg30
g4498
sg32
(imap.components.point
Point
p5725
(dp5726
g35
I14
sg36
I6
sbsba(imap.components.floor
Floor
p5727
(dp5728
g29
I01
sg30
g4498
sg32
(imap.components.point
Point
p5729
(dp5730
g35
I14
sg36
I7
sbsba(imap.components.floor
Floor
p5731
(dp5732
g29
I01
sg30
g4498
sg32
(imap.components.point
Point
p5733
(dp5734
g35
I14
sg36
I8
sbsba(imap.components.floor
Floor
p5735
(dp5736
g29
I01
sg30
g4498
sg32
(imap.components.point
Point
p5737
(dp5738
g35
I14
sg36
I9
sbsba(imap.components.floor
Floor
p5739
(dp5740
g29
I01
sg30
g4498
sg32
(imap.components.point
Point
p5741
(dp5742
g35
I14
sg36
I10
sbsba(imap.components.floor
Floor
p5743
(dp5744
g29
I01
sg30
g4498
sg32
(imap.components.point
Point
p5745
(dp5746
g35
I14
sg36
I11
sbsba(imap.components.floor
Floor
p5747
(dp5748
g29
I01
sg30
g4498
sg32
(imap.components.point
Point
p5749
(dp5750
g35
I14
sg36
I12
sbsba(imap.components.wall
Wall
p5751
(dp5752
g29
I00
sg30
g4473
sg32
(imap.components.point
Point
p5753
(dp5754
g35
I14
sg36
I13
sbsba(imap.components.floor
Floor
p5755
(dp5756
g29
I01
sg30
g4498
sg32
(imap.components.point
Point
p5757
(dp5758
g35
I14
sg36
I14
sbsba(imap.components.floor
Floor
p5759
(dp5760
g29
I01
sg30
g4498
sg32
(imap.components.point
Point
p5761
(dp5762
g35
I14
sg36
I15
sbsba(imap.components.floor
Floor
p5763
(dp5764
g29
I01
sg30
g4498
sg32
(imap.components.point
Point
p5765
(dp5766
g35
I14
sg36
I16
sbsba(imap.components.floor
Floor
p5767
(dp5768
g29
I01
sg30
g4498
sg32
(imap.components.point
Point
p5769
(dp5770
g35
I14
sg36
I17
sbsba(imap.components.floor
Floor
p5771
(dp5772
g29
I01
sg30
g4498
sg32
(imap.components.point
Point
p5773
(dp5774
g35
I14
sg36
I18
sbsba(imap.components.wall
Wall
p5775
(dp5776
g29
I00
sg30
g4473
sg32
(imap.components.point
Point
p5777
(dp5778
g35
I14
sg36
I19
sbsbag4774
ag4778
ag4782
ag4786
ag4790
a(imap.components.floor
Floor
p5779
(dp5780
g29
I01
sg30
g4498
sg32
(imap.components.point
Point
p5781
(dp5782
g35
I15
sg36
I5
sbsba(imap.components.floor
Floor
p5783
(dp5784
g29
I01
sg30
g4498
sg32
(imap.components.point
Point
p5785
(dp5786
g35
I15
sg36
I6
sbsba(imap.components.floor
Floor
p5787
(dp5788
g29
I01
sg30
g4498
sg32
(imap.components.point
Point
p5789
(dp5790
g35
I15
sg36
I7
sbsba(imap.components.floor
Floor
p5791
(dp5792
g29
I01
sg30
g4498
sg32
(imap.components.point
Point
p5793
(dp5794
g35
I15
sg36
I8
sbsba(imap.components.floor
Floor
p5795
(dp5796
g29
I01
sg30
g4498
sg32
(imap.components.point
Point
p5797
(dp5798
g35
I15
sg36
I9
sbsba(imap.components.floor
Floor
p5799
(dp5800
g29
I01
sg30
g4498
sg32
(imap.components.point
Point
p5801
(dp5802
g35
I15
sg36
I10
sbsba(imap.components.floor
Floor
p5803
(dp5804
g29
I01
sg30
g4498
sg32
(imap.components.point
Point
p5805
(dp5806
g35
I15
sg36
I11
sbsba(imap.components.floor
Floor
p5807
(dp5808
g29
I01
sg30
g4498
sg32
(imap.components.point
Point
p5809
(dp5810
g35
I15
sg36
I12
sbsba(imap.components.wall
Wall
p5811
(dp5812
g29
I00
sg30
g4473
sg32
(imap.components.point
Point
p5813
(dp5814
g35
I15
sg36
I13
sbsba(imap.components.floor
Floor
p5815
(dp5816
g29
I01
sg30
g4498
sg32
(imap.components.point
Point
p5817
(dp5818
g35
I15
sg36
I14
sbsba(imap.components.floor
Floor
p5819
(dp5820
g29
I01
sg30
g4498
sg32
(imap.components.point
Point
p5821
(dp5822
g35
I15
sg36
I15
sbsba(imap.components.floor
Floor
p5823
(dp5824
g29
I01
sg30
g4498
sg32
(imap.components.point
Point
p5825
(dp5826
g35
I15
sg36
I16
sbsba(imap.components.floor
Floor
p5827
(dp5828
g29
I01
sg30
g4498
sg32
(imap.components.point
Point
p5829
(dp5830
g35
I15
sg36
I17
sbsba(imap.components.floor
Floor
p5831
(dp5832
g29
I01
sg30
g4498
sg32
(imap.components.point
Point
p5833
(dp5834
g35
I15
sg36
I18
sbsba(imap.components.wall
Wall
p5835
(dp5836
g29
I00
sg30
g4473
sg32
(imap.components.point
Point
p5837
(dp5838
g35
I15
sg36
I19
sbsbag4794
ag4798
ag4802
ag4806
ag4810
a(imap.components.floor
Floor
p5839
(dp5840
g29
I01
sg30
g4498
sg32
(imap.components.point
Point
p5841
(dp5842
g35
I16
sg36
I5
sbsba(imap.components.floor
Floor
p5843
(dp5844
g29
I01
sg30
g4498
sg32
(imap.components.point
Point
p5845
(dp5846
g35
I16
sg36
I6
sbsba(imap.components.floor
Floor
p5847
(dp5848
g29
I01
sg30
g4498
sg32
(imap.components.point
Point
p5849
(dp5850
g35
I16
sg36
I7
sbsba(imap.components.floor
Floor
p5851
(dp5852
g29
I01
sg30
g4498
sg32
(imap.components.point
Point
p5853
(dp5854
g35
I16
sg36
I8
sbsba(imap.components.floor
Floor
p5855
(dp5856
g29
I01
sg30
g4498
sg32
(imap.components.point
Point
p5857
(dp5858
g35
I16
sg36
I9
sbsba(imap.components.floor
Floor
p5859
(dp5860
g29
I01
sg30
g4498
sg32
(imap.components.point
Point
p5861
(dp5862
g35
I16
sg36
I10
sbsba(imap.components.floor
Floor
p5863
(dp5864
g29
I01
sg30
g4498
sg32
(imap.components.point
Point
p5865
(dp5866
g35
I16
sg36
I11
sbsba(imap.components.floor
Floor
p5867
(dp5868
g29
I01
sg30
g4498
sg32
(imap.components.point
Point
p5869
(dp5870
g35
I16
sg36
I12
sbsba(imap.components.wall
Wall
p5871
(dp5872
g29
I00
sg30
g4473
sg32
(imap.components.point
Point
p5873
(dp5874
g35
I16
sg36
I13
sbsba(imap.components.floor
Floor
p5875
(dp5876
g29
I01
sg30
g4498
sg32
(imap.components.point
Point
p5877
(dp5878
g35
I16
sg36
I14
sbsba(imap.components.floor
Floor
p5879
(dp5880
g29
I01
sg30
g4498
sg32
(imap.components.point
Point
p5881
(dp5882
g35
I16
sg36
I15
sbsba(imap.components.floor
Floor
p5883
(dp5884
g29
I01
sg30
g4498
sg32
(imap.components.point
Point
p5885
(dp5886
g35
I16
sg36
I16
sbsba(imap.components.floor
Floor
p5887
(dp5888
g29
I01
sg30
g4498
sg32
(imap.components.point
Point
p5889
(dp5890
g35
I16
sg36
I17
sbsba(imap.components.floor
Floor
p5891
(dp5892
g29
I01
sg30
g4498
sg32
(imap.components.point
Point
p5893
(dp5894
g35
I16
sg36
I18
sbsba(imap.components.wall
Wall
p5895
(dp5896
g29
I00
sg30
g4473
sg32
(imap.components.point
Point
p5897
(dp5898
g35
I16
sg36
I19
sbsbag4814
ag4818
ag4822
ag4826
ag4830
a(imap.components.floor
Floor
p5899
(dp5900
g29
I01
sg30
g4498
sg32
(imap.components.point
Point
p5901
(dp5902
g35
I17
sg36
I5
sbsba(imap.components.floor
Floor
p5903
(dp5904
g29
I01
sg30
g4498
sg32
(imap.components.point
Point
p5905
(dp5906
g35
I17
sg36
I6
sbsba(imap.components.floor
Floor
p5907
(dp5908
g29
I01
sg30
g4498
sg32
(imap.components.point
Point
p5909
(dp5910
g35
I17
sg36
I7
sbsba(imap.components.floor
Floor
p5911
(dp5912
g29
I01
sg30
g4498
sg32
(imap.components.point
Point
p5913
(dp5914
g35
I17
sg36
I8
sbsba(imap.components.floor
Floor
p5915
(dp5916
g29
I01
sg30
g4498
sg32
(imap.components.point
Point
p5917
(dp5918
g35
I17
sg36
I9
sbsba(imap.components.floor
Floor
p5919
(dp5920
g29
I01
sg30
g4498
sg32
(imap.components.point
Point
p5921
(dp5922
g35
I17
sg36
I10
sbsba(imap.components.floor
Floor
p5923
(dp5924
g29
I01
sg30
g4498
sg32
(imap.components.point
Point
p5925
(dp5926
g35
I17
sg36
I11
sbsba(imap.components.floor
Floor
p5927
(dp5928
g29
I01
sg30
g4498
sg32
(imap.components.point
Point
p5929
(dp5930
g35
I17
sg36
I12
sbsba(imap.components.wall
Wall
p5931
(dp5932
g29
I00
sg30
g4473
sg32
(imap.components.point
Point
p5933
(dp5934
g35
I17
sg36
I13
sbsba(imap.components.floor
Floor
p5935
(dp5936
g29
I01
sg30
g4498
sg32
(imap.components.point
Point
p5937
(dp5938
g35
I17
sg36
I14
sbsba(imap.components.floor
Floor
p5939
(dp5940
g29
I01
sg30
g4498
sg32
(imap.components.point
Point
p5941
(dp5942
g35
I17
sg36
I15
sbsba(imap.components.floor
Floor
p5943
(dp5944
g29
I01
sg30
g4498
sg32
(imap.components.point
Point
p5945
(dp5946
g35
I17
sg36
I16
sbsba(imap.components.floor
Floor
p5947
(dp5948
g29
I01
sg30
g4498
sg32
(imap.components.point
Point
p5949
(dp5950
g35
I17
sg36
I17
sbsba(imap.components.floor
Floor
p5951
(dp5952
g29
I01
sg30
g4498
sg32
(imap.components.point
Point
p5953
(dp5954
g35
I17
sg36
I18
sbsba(imap.components.wall
Wall
p5955
(dp5956
g29
I00
sg30
g4473
sg32
(imap.components.point
Point
p5957
(dp5958
g35
I17
sg36
I19
sbsbag4834
ag4838
ag4842
ag4846
ag4850
a(imap.components.floor
Floor
p5959
(dp5960
g29
I01
sg30
g4498
sg32
(imap.components.point
Point
p5961
(dp5962
g35
I18
sg36
I5
sbsba(imap.components.floor
Floor
p5963
(dp5964
g29
I01
sg30
g4498
sg32
(imap.components.point
Point
p5965
(dp5966
g35
I18
sg36
I6
sbsba(imap.components.floor
Floor
p5967
(dp5968
g29
I01
sg30
g4498
sg32
(imap.components.point
Point
p5969
(dp5970
g35
I18
sg36
I7
sbsba(imap.components.floor
Floor
p5971
(dp5972
g29
I01
sg30
g4498
sg32
(imap.components.point
Point
p5973
(dp5974
g35
I18
sg36
I8
sbsba(imap.components.floor
Floor
p5975
(dp5976
g29
I01
sg30
g4498
sg32
(imap.components.point
Point
p5977
(dp5978
g35
I18
sg36
I9
sbsba(imap.components.floor
Floor
p5979
(dp5980
g29
I01
sg30
g4498
sg32
(imap.components.point
Point
p5981
(dp5982
g35
I18
sg36
I10
sbsba(imap.components.floor
Floor
p5983
(dp5984
g29
I01
sg30
g4498
sg32
(imap.components.point
Point
p5985
(dp5986
g35
I18
sg36
I11
sbsba(imap.components.floor
Floor
p5987
(dp5988
g29
I01
sg30
g4498
sg32
(imap.components.point
Point
p5989
(dp5990
g35
I18
sg36
I12
sbsba(imap.components.wall
Wall
p5991
(dp5992
g29
I00
sg30
g4473
sg32
(imap.components.point
Point
p5993
(dp5994
g35
I18
sg36
I13
sbsba(imap.components.floor
Floor
p5995
(dp5996
g29
I01
sg30
g4498
sg32
(imap.components.point
Point
p5997
(dp5998
g35
I18
sg36
I14
sbsba(imap.components.floor
Floor
p5999
(dp6000
g29
I01
sg30
g4498
sg32
(imap.components.point
Point
p6001
(dp6002
g35
I18
sg36
I15
sbsba(imap.components.floor
Floor
p6003
(dp6004
g29
I01
sg30
g4498
sg32
(imap.components.point
Point
p6005
(dp6006
g35
I18
sg36
I16
sbsba(imap.components.floor
Floor
p6007
(dp6008
g29
I01
sg30
g4498
sg32
(imap.components.point
Point
p6009
(dp6010
g35
I18
sg36
I17
sbsba(imap.components.floor
Floor
p6011
(dp6012
g29
I01
sg30
g4498
sg32
(imap.components.point
Point
p6013
(dp6014
g35
I18
sg36
I18
sbsba(imap.components.exit
Exit
p6015
(dp6016
g29
I01
sg30
S'*'
p6017
sg32
(imap.components.point
Point
p6018
(dp6019
g35
I18
sg36
I19
sbsbag4854
ag4858
ag4862
ag4866
ag4870
a(imap.components.wall
Wall
p6020
(dp6021
g29
I00
sg30
g4473
sg32
(imap.components.point
Point
p6022
(dp6023
g35
I19
sg36
I5
sbsba(imap.components.wall
Wall
p6024
(dp6025
g29
I00
sg30
g4473
sg32
(imap.components.point
Point
p6026
(dp6027
g35
I19
sg36
I6
sbsba(imap.components.wall
Wall
p6028
(dp6029
g29
I00
sg30
g4473
sg32
(imap.components.point
Point
p6030
(dp6031
g35
I19
sg36
I7
sbsba(imap.components.wall
Wall
p6032
(dp6033
g29
I00
sg30
g4473
sg32
(imap.components.point
Point
p6034
(dp6035
g35
I19
sg36
I8
sbsba(imap.components.wall
Wall
p6036
(dp6037
g29
I00
sg30
g4473
sg32
(imap.components.point
Point
p6038
(dp6039
g35
I19
sg36
I9
sbsba(imap.components.wall
Wall
p6040
(dp6041
g29
I00
sg30
g4473
sg32
(imap.components.point
Point
p6042
(dp6043
g35
I19
sg36
I10
sbsba(imap.components.wall
Wall
p6044
(dp6045
g29
I00
sg30
g4473
sg32
(imap.components.point
Point
p6046
(dp6047
g35
I19
sg36
I11
sbsba(imap.components.wall
Wall
p6048
(dp6049
g29
I00
sg30
g4473
sg32
(imap.components.point
Point
p6050
(dp6051
g35
I19
sg36
I12
sbsba(imap.components.wall
Wall
p6052
(dp6053
g29
I00
sg30
g4473
sg32
(imap.components.point
Point
p6054
(dp6055
g35
I19
sg36
I13
sbsba(imap.components.wall
Wall
p6056
(dp6057
g29
I00
sg30
g4473
sg32
(imap.components.point
Point
p6058
(dp6059
g35
I19
sg36
I14
sbsba(imap.components.wall
Wall
p6060
(dp6061
g29
I00
sg30
g4473
sg32
(imap.components.point
Point
p6062
(dp6063
g35
I19
sg36
I15
sbsba(imap.components.wall
Wall
p6064
(dp6065
g29
I00
sg30
g4473
sg32
(imap.components.point
Point
p6066
(dp6067
g35
I19
sg36
I16
sbsba(imap.components.wall
Wall
p6068
(dp6069
g29
I00
sg30
g4473
sg32
(imap.components.point
Point
p6070
(dp6071
g35
I19
sg36
I17
sbsba(imap.components.wall
Wall
p6072
(dp6073
g29
I00
sg30
g4473
sg32
(imap.components.point
Point
p6074
(dp6075
g35
I19
sg36
I18
sbsba(imap.components.wall
Wall
p6076
(dp6077
g29
I00
sg30
g4473
sg32
(imap.components.point
Point
p6078
(dp6079
g35
I19
sg36
I19
sbsbasbsg4458
S'prison'
p6080
sbssS'THI'
p6081
(dp6082
ssb.