(idb.dbtext
DBText
p0
(dp1
S'maps'
p2
(dp3
S'Maricota'
p4
S'OOOOOOOOOOOOOOOOOOOOOOOOOOOOOOOOOOOOOOOOO\nO_    O    .       O         .        . O\nOOOOO O OO.OO OOOO O.OOOO    O OOOOOO.O O\nO   O O O   O O  . O    OOOO.OOO    . O O\nO O O O OOO O O  OOOOOO O  O     OOOO O O\nO O . O   O O OO O .    O OOOOOOOO  O O O\nO OOO.OOO O O  O O OOOOOO.OOO .     . O O\nO  O    . O .  O O O  .       OOOOOOO . O\nO  O    OOO OOOO O O OO OOOOO .     OOOOO\nO OOOOO.O   OO O O O OO O . O OOOOO .   O\nO     O      O .   O .  O O O .     OOO O\nOOOOO OOOOOOOO OOOOO OOOO O O OOOOOOO O O\nO   O O    O       O O O  O O O  . .  O O\nO   O . OO OOOOOOO O O O  . O O  O O  O O\nO O O.OOOO O       O O O.OOOO OOOO.OOOO O\nO OOO O  . O O.OOOOO O      . .  O    . O\nO     O  O O O O     O.O.OOOO.OO O    O.O\nOOOOOOO  O O O O O   O O   O   O OOOOOO O\nO        O . O   OOOOO O OOOOO . O      O\nO   O.OOOO.O O.OOO  O  O  O O  O.OOOOOOOO\nO.OOO      O O      O OO  O O OO   O    O\nO   OOOOOOOO OOOOOO.O OOO O O.OOOO O O  *\nO          O        O .   O      O . OOOO\nOOOOOOOOOOOOOOOOOOOOOOOOOOOOOOOOOOOOOOOOO\n'
p5
sS'prison'
p6
S'OOOOOOOOOOOOOOOOOOOO\nO_O . O    O .     O\nO.O O O    O O     O\nO O O O    O O     O\nO.O O .    O O     O\nO O O OOOOOO O     O\nO O O        O     O\nO O OOOOOOOOOO     O\nO.O .        O     O\nO O O        O     O\nO O O        O     O\nO O.O        O     O\nO.O .        O     O\nO O O        O     O\nO O O        O     O\nO O O        O     O\nO O O        O     O\nO.O O        O     O\nO   O        O     *\nOOOOOOOOOOOOOOOOOOOO\n'
p7
sS'easy'
p8
S'OOOOOOOOOO\nO O    O O\nO . OO   O\nO O O    O\nO OOOO O.O\nO_O O    *\nO OOOOOO.O\nO O      O\nO O OOOOOO\nO . O    O\nOOOOOOOOOO\n'
p9
sS'empty'
p10
S'OOOOOOOOOOO\nO         O\nO         O\nO         O\nO         O\nO    _    O\nO         O\nO         O\nO         O\nO         *\nOOOOOOOOOOO\n'
p11
sS'lorilu'
p12
S'OOOOOOOOOO\nO        O\nO        O\nO        O\nO_       *\nO        O\nO        O\nO        O\nOOOOOOOOOO'
p13
ssS'users'
p14
(dp15
S'1'
p16
(dp17
sS'GAB'
p18
(dp19
S'Maricota'
p20
(igame
Game
p21
(dp22
S'_visible_map'
p23
(igame_map
GameMap
p24
(dp25
S'_robot'
p26
(imap.components.robot
Robot
p27
(dp28
S'_passable'
p29
I00
sS'_symbol'
p30
S'@'
p31
sS'_point'
p32
(imap.components.point
Point
p33
(dp34
S'y'
p35
I22
sS'x'
p36
I1
sbsbsS'_game_map'
p37
(lp38
(imap.components.wall
Wall
p39
(dp40
g29
I00
sg30
S'O'
p41
sg32
(imap.components.point
Point
p42
(dp43
g35
I0
sg36
I0
sbsba(imap.components.wall
Wall
p44
(dp45
g29
I00
sg30
g41
sg32
(imap.components.point
Point
p46
(dp47
g35
I0
sg36
I1
sbsba(imap.components.wall
Wall
p48
(dp49
g29
I00
sg30
g41
sg32
(imap.components.point
Point
p50
(dp51
g35
I0
sg36
I2
sbsba(imap.components.wall
Wall
p52
(dp53
g29
I00
sg30
g41
sg32
(imap.components.point
Point
p54
(dp55
g35
I0
sg36
I3
sbsba(imap.components.wall
Wall
p56
(dp57
g29
I00
sg30
g41
sg32
(imap.components.point
Point
p58
(dp59
g35
I0
sg36
I4
sbsba(imap.components.wall
Wall
p60
(dp61
g29
I00
sg30
g41
sg32
(imap.components.point
Point
p62
(dp63
g35
I0
sg36
I5
sbsba(imap.components.wall
Wall
p64
(dp65
g29
I00
sg30
g41
sg32
(imap.components.point
Point
p66
(dp67
g35
I0
sg36
I6
sbsba(imap.components.wall
Wall
p68
(dp69
g29
I00
sg30
g41
sg32
(imap.components.point
Point
p70
(dp71
g35
I0
sg36
I7
sbsba(imap.components.wall
Wall
p72
(dp73
g29
I00
sg30
g41
sg32
(imap.components.point
Point
p74
(dp75
g35
I0
sg36
I8
sbsba(imap.components.wall
Wall
p76
(dp77
g29
I00
sg30
g41
sg32
(imap.components.point
Point
p78
(dp79
g35
I0
sg36
I9
sbsba(imap.components.wall
Wall
p80
(dp81
g29
I00
sg30
g41
sg32
(imap.components.point
Point
p82
(dp83
g35
I0
sg36
I10
sbsba(imap.components.wall
Wall
p84
(dp85
g29
I00
sg30
g41
sg32
(imap.components.point
Point
p86
(dp87
g35
I0
sg36
I11
sbsba(imap.components.wall
Wall
p88
(dp89
g29
I00
sg30
g41
sg32
(imap.components.point
Point
p90
(dp91
g35
I0
sg36
I12
sbsba(imap.components.wall
Wall
p92
(dp93
g29
I00
sg30
g41
sg32
(imap.components.point
Point
p94
(dp95
g35
I0
sg36
I13
sbsba(imap.components.wall
Wall
p96
(dp97
g29
I00
sg30
g41
sg32
(imap.components.point
Point
p98
(dp99
g35
I0
sg36
I14
sbsba(imap.components.wall
Wall
p100
(dp101
g29
I00
sg30
g41
sg32
(imap.components.point
Point
p102
(dp103
g35
I0
sg36
I15
sbsba(imap.components.wall
Wall
p104
(dp105
g29
I00
sg30
g41
sg32
(imap.components.point
Point
p106
(dp107
g35
I0
sg36
I16
sbsba(imap.components.wall
Wall
p108
(dp109
g29
I00
sg30
g41
sg32
(imap.components.point
Point
p110
(dp111
g35
I0
sg36
I17
sbsba(imap.components.wall
Wall
p112
(dp113
g29
I00
sg30
g41
sg32
(imap.components.point
Point
p114
(dp115
g35
I0
sg36
I18
sbsba(imap.components.wall
Wall
p116
(dp117
g29
I00
sg30
g41
sg32
(imap.components.point
Point
p118
(dp119
g35
I0
sg36
I19
sbsba(imap.components.empty
Empty
p120
(dp121
g29
I00
sg30
S' '
p122
sg32
(imap.components.point
Point
p123
(dp124
g35
I0
sg36
I20
sbsba(imap.components.wall
Wall
p125
(dp126
g29
I00
sg30
g41
sg32
(imap.components.point
Point
p127
(dp128
g35
I1
sg36
I0
sbsba(imap.components.floor
Floor
p129
(dp130
g29
I01
sg30
g122
sg32
(imap.components.point
Point
p131
(dp132
g35
I1
sg36
I1
sbsba(imap.components.floor
Floor
p133
(dp134
g29
I01
sg30
g122
sg32
(imap.components.point
Point
p135
(dp136
g35
I1
sg36
I2
sbsba(imap.components.floor
Floor
p137
(dp138
g29
I01
sg30
g122
sg32
(imap.components.point
Point
p139
(dp140
g35
I1
sg36
I3
sbsba(imap.components.floor
Floor
p141
(dp142
g29
I01
sg30
g122
sg32
(imap.components.point
Point
p143
(dp144
g35
I1
sg36
I4
sbsba(imap.components.floor
Floor
p145
(dp146
g29
I01
sg30
g122
sg32
(imap.components.point
Point
p147
(dp148
g35
I1
sg36
I5
sbsba(imap.components.wall
Wall
p149
(dp150
g29
I00
sg30
g41
sg32
(imap.components.point
Point
p151
(dp152
g35
I1
sg36
I6
sbsba(imap.components.floor
Floor
p153
(dp154
g29
I01
sg30
g122
sg32
(imap.components.point
Point
p155
(dp156
g35
I1
sg36
I7
sbsba(imap.components.floor
Floor
p157
(dp158
g29
I01
sg30
g122
sg32
(imap.components.point
Point
p159
(dp160
g35
I1
sg36
I8
sbsba(imap.components.floor
Floor
p161
(dp162
g29
I01
sg30
g122
sg32
(imap.components.point
Point
p163
(dp164
g35
I1
sg36
I9
sbsba(imap.components.floor
Floor
p165
(dp166
g29
I01
sg30
g122
sg32
(imap.components.point
Point
p167
(dp168
g35
I1
sg36
I10
sbsba(imap.components.door
Door
p169
(dp170
g29
I01
sg30
S'.'
p171
sg32
(imap.components.point
Point
p172
(dp173
g35
I1
sg36
I11
sbsba(imap.components.floor
Floor
p174
(dp175
g29
I01
sg30
g122
sg32
(imap.components.point
Point
p176
(dp177
g35
I1
sg36
I12
sbsba(imap.components.floor
Floor
p178
(dp179
g29
I01
sg30
g122
sg32
(imap.components.point
Point
p180
(dp181
g35
I1
sg36
I13
sbsba(imap.components.floor
Floor
p182
(dp183
g29
I01
sg30
g122
sg32
(imap.components.point
Point
p184
(dp185
g35
I1
sg36
I14
sbsba(imap.components.floor
Floor
p186
(dp187
g29
I01
sg30
g122
sg32
(imap.components.point
Point
p188
(dp189
g35
I1
sg36
I15
sbsba(imap.components.floor
Floor
p190
(dp191
g29
I01
sg30
g122
sg32
(imap.components.point
Point
p192
(dp193
g35
I1
sg36
I16
sbsba(imap.components.floor
Floor
p194
(dp195
g29
I01
sg30
g122
sg32
(imap.components.point
Point
p196
(dp197
g35
I1
sg36
I17
sbsba(imap.components.floor
Floor
p198
(dp199
g29
I01
sg30
g122
sg32
(imap.components.point
Point
p200
(dp201
g35
I1
sg36
I18
sbsba(imap.components.wall
Wall
p202
(dp203
g29
I00
sg30
g41
sg32
(imap.components.point
Point
p204
(dp205
g35
I1
sg36
I19
sbsba(imap.components.empty
Empty
p206
(dp207
g29
I00
sg30
g122
sg32
(imap.components.point
Point
p208
(dp209
g35
I1
sg36
I20
sbsba(imap.components.wall
Wall
p210
(dp211
g29
I00
sg30
g41
sg32
(imap.components.point
Point
p212
(dp213
g35
I2
sg36
I0
sbsba(imap.components.wall
Wall
p214
(dp215
g29
I00
sg30
g41
sg32
(imap.components.point
Point
p216
(dp217
g35
I2
sg36
I1
sbsba(imap.components.wall
Wall
p218
(dp219
g29
I00
sg30
g41
sg32
(imap.components.point
Point
p220
(dp221
g35
I2
sg36
I2
sbsba(imap.components.wall
Wall
p222
(dp223
g29
I00
sg30
g41
sg32
(imap.components.point
Point
p224
(dp225
g35
I2
sg36
I3
sbsba(imap.components.wall
Wall
p226
(dp227
g29
I00
sg30
g41
sg32
(imap.components.point
Point
p228
(dp229
g35
I2
sg36
I4
sbsba(imap.components.floor
Floor
p230
(dp231
g29
I01
sg30
g122
sg32
(imap.components.point
Point
p232
(dp233
g35
I2
sg36
I5
sbsba(imap.components.wall
Wall
p234
(dp235
g29
I00
sg30
g41
sg32
(imap.components.point
Point
p236
(dp237
g35
I2
sg36
I6
sbsba(imap.components.floor
Floor
p238
(dp239
g29
I01
sg30
g122
sg32
(imap.components.point
Point
p240
(dp241
g35
I2
sg36
I7
sbsba(imap.components.wall
Wall
p242
(dp243
g29
I00
sg30
g41
sg32
(imap.components.point
Point
p244
(dp245
g35
I2
sg36
I8
sbsba(imap.components.wall
Wall
p246
(dp247
g29
I00
sg30
g41
sg32
(imap.components.point
Point
p248
(dp249
g35
I2
sg36
I9
sbsba(imap.components.door
Door
p250
(dp251
g29
I01
sg30
g171
sg32
(imap.components.point
Point
p252
(dp253
g35
I2
sg36
I10
sbsba(imap.components.wall
Wall
p254
(dp255
g29
I00
sg30
g41
sg32
(imap.components.point
Point
p256
(dp257
g35
I2
sg36
I11
sbsba(imap.components.wall
Wall
p258
(dp259
g29
I00
sg30
g41
sg32
(imap.components.point
Point
p260
(dp261
g35
I2
sg36
I12
sbsba(imap.components.floor
Floor
p262
(dp263
g29
I01
sg30
g122
sg32
(imap.components.point
Point
p264
(dp265
g35
I2
sg36
I13
sbsba(imap.components.wall
Wall
p266
(dp267
g29
I00
sg30
g41
sg32
(imap.components.point
Point
p268
(dp269
g35
I2
sg36
I14
sbsba(imap.components.wall
Wall
p270
(dp271
g29
I00
sg30
g41
sg32
(imap.components.point
Point
p272
(dp273
g35
I2
sg36
I15
sbsba(imap.components.wall
Wall
p274
(dp275
g29
I00
sg30
g41
sg32
(imap.components.point
Point
p276
(dp277
g35
I2
sg36
I16
sbsba(imap.components.wall
Wall
p278
(dp279
g29
I00
sg30
g41
sg32
(imap.components.point
Point
p280
(dp281
g35
I2
sg36
I17
sbsba(imap.components.floor
Floor
p282
(dp283
g29
I01
sg30
g122
sg32
(imap.components.point
Point
p284
(dp285
g35
I2
sg36
I18
sbsba(imap.components.wall
Wall
p286
(dp287
g29
I00
sg30
g41
sg32
(imap.components.point
Point
p288
(dp289
g35
I2
sg36
I19
sbsba(imap.components.empty
Empty
p290
(dp291
g29
I00
sg30
g122
sg32
(imap.components.point
Point
p292
(dp293
g35
I2
sg36
I20
sbsba(imap.components.empty
Empty
p294
(dp295
g29
I00
sg30
g122
sg32
(imap.components.point
Point
p296
(dp297
g35
I3
sg36
I0
sbsba(imap.components.empty
Empty
p298
(dp299
g29
I00
sg30
g122
sg32
(imap.components.point
Point
p300
(dp301
g35
I3
sg36
I1
sbsba(imap.components.empty
Empty
p302
(dp303
g29
I00
sg30
g122
sg32
(imap.components.point
Point
p304
(dp305
g35
I3
sg36
I2
sbsba(imap.components.empty
Empty
p306
(dp307
g29
I00
sg30
g122
sg32
(imap.components.point
Point
p308
(dp309
g35
I3
sg36
I3
sbsba(imap.components.wall
Wall
p310
(dp311
g29
I00
sg30
g41
sg32
(imap.components.point
Point
p312
(dp313
g35
I3
sg36
I4
sbsba(imap.components.floor
Floor
p314
(dp315
g29
I01
sg30
g122
sg32
(imap.components.point
Point
p316
(dp317
g35
I3
sg36
I5
sbsba(imap.components.wall
Wall
p318
(dp319
g29
I00
sg30
g41
sg32
(imap.components.point
Point
p320
(dp321
g35
I3
sg36
I6
sbsba(imap.components.floor
Floor
p322
(dp323
g29
I01
sg30
g122
sg32
(imap.components.point
Point
p324
(dp325
g35
I3
sg36
I7
sbsba(imap.components.wall
Wall
p326
(dp327
g29
I00
sg30
g41
sg32
(imap.components.point
Point
p328
(dp329
g35
I3
sg36
I8
sbsba(imap.components.floor
Floor
p330
(dp331
g29
I01
sg30
g122
sg32
(imap.components.point
Point
p332
(dp333
g35
I3
sg36
I9
sbsba(imap.components.floor
Floor
p334
(dp335
g29
I01
sg30
g122
sg32
(imap.components.point
Point
p336
(dp337
g35
I3
sg36
I10
sbsba(imap.components.floor
Floor
p338
(dp339
g29
I01
sg30
g122
sg32
(imap.components.point
Point
p340
(dp341
g35
I3
sg36
I11
sbsba(imap.components.wall
Wall
p342
(dp343
g29
I00
sg30
g41
sg32
(imap.components.point
Point
p344
(dp345
g35
I3
sg36
I12
sbsba(imap.components.floor
Floor
p346
(dp347
g29
I01
sg30
g122
sg32
(imap.components.point
Point
p348
(dp349
g35
I3
sg36
I13
sbsba(imap.components.wall
Wall
p350
(dp351
g29
I00
sg30
g41
sg32
(imap.components.point
Point
p352
(dp353
g35
I3
sg36
I14
sbsba(imap.components.floor
Floor
p354
(dp355
g29
I01
sg30
g122
sg32
(imap.components.point
Point
p356
(dp357
g35
I3
sg36
I15
sbsba(imap.components.floor
Floor
p358
(dp359
g29
I01
sg30
g122
sg32
(imap.components.point
Point
p360
(dp361
g35
I3
sg36
I16
sbsba(imap.components.door
Door
p362
(dp363
g29
I01
sg30
g171
sg32
(imap.components.point
Point
p364
(dp365
g35
I3
sg36
I17
sbsba(imap.components.floor
Floor
p366
(dp367
g29
I01
sg30
g122
sg32
(imap.components.point
Point
p368
(dp369
g35
I3
sg36
I18
sbsba(imap.components.wall
Wall
p370
(dp371
g29
I00
sg30
g41
sg32
(imap.components.point
Point
p372
(dp373
g35
I3
sg36
I19
sbsba(imap.components.empty
Empty
p374
(dp375
g29
I00
sg30
g122
sg32
(imap.components.point
Point
p376
(dp377
g35
I3
sg36
I20
sbsba(imap.components.empty
Empty
p378
(dp379
g29
I00
sg30
g122
sg32
(imap.components.point
Point
p380
(dp381
g35
I4
sg36
I0
sbsba(imap.components.empty
Empty
p382
(dp383
g29
I00
sg30
g122
sg32
(imap.components.point
Point
p384
(dp385
g35
I4
sg36
I1
sbsba(imap.components.empty
Empty
p386
(dp387
g29
I00
sg30
g122
sg32
(imap.components.point
Point
p388
(dp389
g35
I4
sg36
I2
sbsba(imap.components.empty
Empty
p390
(dp391
g29
I00
sg30
g122
sg32
(imap.components.point
Point
p392
(dp393
g35
I4
sg36
I3
sbsba(imap.components.wall
Wall
p394
(dp395
g29
I00
sg30
g41
sg32
(imap.components.point
Point
p396
(dp397
g35
I4
sg36
I4
sbsba(imap.components.floor
Floor
p398
(dp399
g29
I01
sg30
g122
sg32
(imap.components.point
Point
p400
(dp401
g35
I4
sg36
I5
sbsba(imap.components.wall
Wall
p402
(dp403
g29
I00
sg30
g41
sg32
(imap.components.point
Point
p404
(dp405
g35
I4
sg36
I6
sbsba(imap.components.floor
Floor
p406
(dp407
g29
I01
sg30
g122
sg32
(imap.components.point
Point
p408
(dp409
g35
I4
sg36
I7
sbsba(imap.components.wall
Wall
p410
(dp411
g29
I00
sg30
g41
sg32
(imap.components.point
Point
p412
(dp413
g35
I4
sg36
I8
sbsba(imap.components.wall
Wall
p414
(dp415
g29
I00
sg30
g41
sg32
(imap.components.point
Point
p416
(dp417
g35
I4
sg36
I9
sbsba(imap.components.wall
Wall
p418
(dp419
g29
I00
sg30
g41
sg32
(imap.components.point
Point
p420
(dp421
g35
I4
sg36
I10
sbsba(imap.components.floor
Floor
p422
(dp423
g29
I01
sg30
g122
sg32
(imap.components.point
Point
p424
(dp425
g35
I4
sg36
I11
sbsba(imap.components.wall
Wall
p426
(dp427
g29
I00
sg30
g41
sg32
(imap.components.point
Point
p428
(dp429
g35
I4
sg36
I12
sbsba(imap.components.floor
Floor
p430
(dp431
g29
I01
sg30
g122
sg32
(imap.components.point
Point
p432
(dp433
g35
I4
sg36
I13
sbsba(imap.components.wall
Wall
p434
(dp435
g29
I00
sg30
g41
sg32
(imap.components.point
Point
p436
(dp437
g35
I4
sg36
I14
sbsba(imap.components.floor
Floor
p438
(dp439
g29
I01
sg30
g122
sg32
(imap.components.point
Point
p440
(dp441
g35
I4
sg36
I15
sbsba(imap.components.floor
Floor
p442
(dp443
g29
I01
sg30
g122
sg32
(imap.components.point
Point
p444
(dp445
g35
I4
sg36
I16
sbsba(imap.components.wall
Wall
p446
(dp447
g29
I00
sg30
g41
sg32
(imap.components.point
Point
p448
(dp449
g35
I4
sg36
I17
sbsba(imap.components.wall
Wall
p450
(dp451
g29
I00
sg30
g41
sg32
(imap.components.point
Point
p452
(dp453
g35
I4
sg36
I18
sbsba(imap.components.wall
Wall
p454
(dp455
g29
I00
sg30
g41
sg32
(imap.components.point
Point
p456
(dp457
g35
I4
sg36
I19
sbsba(imap.components.empty
Empty
p458
(dp459
g29
I00
sg30
g122
sg32
(imap.components.point
Point
p460
(dp461
g35
I4
sg36
I20
sbsba(imap.components.empty
Empty
p462
(dp463
g29
I00
sg30
g122
sg32
(imap.components.point
Point
p464
(dp465
g35
I5
sg36
I0
sbsba(imap.components.empty
Empty
p466
(dp467
g29
I00
sg30
g122
sg32
(imap.components.point
Point
p468
(dp469
g35
I5
sg36
I1
sbsba(imap.components.empty
Empty
p470
(dp471
g29
I00
sg30
g122
sg32
(imap.components.point
Point
p472
(dp473
g35
I5
sg36
I2
sbsba(imap.components.empty
Empty
p474
(dp475
g29
I00
sg30
g122
sg32
(imap.components.point
Point
p476
(dp477
g35
I5
sg36
I3
sbsba(imap.components.door
Door
p478
(dp479
g29
I01
sg30
g171
sg32
(imap.components.point
Point
p480
(dp481
g35
I5
sg36
I4
sbsba(imap.components.floor
Floor
p482
(dp483
g29
I01
sg30
g122
sg32
(imap.components.point
Point
p484
(dp485
g35
I5
sg36
I5
sbsba(imap.components.wall
Wall
p486
(dp487
g29
I00
sg30
g41
sg32
(imap.components.point
Point
p488
(dp489
g35
I5
sg36
I6
sbsba(imap.components.floor
Floor
p490
(dp491
g29
I01
sg30
g122
sg32
(imap.components.point
Point
p492
(dp493
g35
I5
sg36
I7
sbsba(imap.components.floor
Floor
p494
(dp495
g29
I01
sg30
g122
sg32
(imap.components.point
Point
p496
(dp497
g35
I5
sg36
I8
sbsba(imap.components.floor
Floor
p498
(dp499
g29
I01
sg30
g122
sg32
(imap.components.point
Point
p500
(dp501
g35
I5
sg36
I9
sbsba(imap.components.wall
Wall
p502
(dp503
g29
I00
sg30
g41
sg32
(imap.components.point
Point
p504
(dp505
g35
I5
sg36
I10
sbsba(imap.components.floor
Floor
p506
(dp507
g29
I01
sg30
g122
sg32
(imap.components.point
Point
p508
(dp509
g35
I5
sg36
I11
sbsba(imap.components.wall
Wall
p510
(dp511
g29
I00
sg30
g41
sg32
(imap.components.point
Point
p512
(dp513
g35
I5
sg36
I12
sbsba(imap.components.floor
Floor
p514
(dp515
g29
I01
sg30
g122
sg32
(imap.components.point
Point
p516
(dp517
g35
I5
sg36
I13
sbsba(imap.components.wall
Wall
p518
(dp519
g29
I00
sg30
g41
sg32
(imap.components.point
Point
p520
(dp521
g35
I5
sg36
I14
sbsba(imap.components.wall
Wall
p522
(dp523
g29
I00
sg30
g41
sg32
(imap.components.point
Point
p524
(dp525
g35
I5
sg36
I15
sbsba(imap.components.floor
Floor
p526
(dp527
g29
I01
sg30
g122
sg32
(imap.components.point
Point
p528
(dp529
g35
I5
sg36
I16
sbsba(imap.components.wall
Wall
p530
(dp531
g29
I00
sg30
g41
sg32
(imap.components.point
Point
p532
(dp533
g35
I5
sg36
I17
sbsba(imap.components.floor
Floor
p534
(dp535
g29
I01
sg30
g122
sg32
(imap.components.point
Point
p536
(dp537
g35
I5
sg36
I18
sbsba(imap.components.door
Door
p538
(dp539
g29
I01
sg30
g171
sg32
(imap.components.point
Point
p540
(dp541
g35
I5
sg36
I19
sbsba(imap.components.empty
Empty
p542
(dp543
g29
I00
sg30
g122
sg32
(imap.components.point
Point
p544
(dp545
g35
I5
sg36
I20
sbsba(imap.components.empty
Empty
p546
(dp547
g29
I00
sg30
g122
sg32
(imap.components.point
Point
p548
(dp549
g35
I6
sg36
I0
sbsba(imap.components.empty
Empty
p550
(dp551
g29
I00
sg30
g122
sg32
(imap.components.point
Point
p552
(dp553
g35
I6
sg36
I1
sbsba(imap.components.empty
Empty
p554
(dp555
g29
I00
sg30
g122
sg32
(imap.components.point
Point
p556
(dp557
g35
I6
sg36
I2
sbsba(imap.components.wall
Wall
p558
(dp559
g29
I00
sg30
g41
sg32
(imap.components.point
Point
p560
(dp561
g35
I6
sg36
I3
sbsba(imap.components.wall
Wall
p562
(dp563
g29
I00
sg30
g41
sg32
(imap.components.point
Point
p564
(dp565
g35
I6
sg36
I4
sbsba(imap.components.door
Door
p566
(dp567
g29
I01
sg30
g171
sg32
(imap.components.point
Point
p568
(dp569
g35
I6
sg36
I5
sbsba(imap.components.wall
Wall
p570
(dp571
g29
I00
sg30
g41
sg32
(imap.components.point
Point
p572
(dp573
g35
I6
sg36
I6
sbsba(imap.components.wall
Wall
p574
(dp575
g29
I00
sg30
g41
sg32
(imap.components.point
Point
p576
(dp577
g35
I6
sg36
I7
sbsba(imap.components.wall
Wall
p578
(dp579
g29
I00
sg30
g41
sg32
(imap.components.point
Point
p580
(dp581
g35
I6
sg36
I8
sbsba(imap.components.floor
Floor
p582
(dp583
g29
I01
sg30
g122
sg32
(imap.components.point
Point
p584
(dp585
g35
I6
sg36
I9
sbsba(imap.components.wall
Wall
p586
(dp587
g29
I00
sg30
g41
sg32
(imap.components.point
Point
p588
(dp589
g35
I6
sg36
I10
sbsba(imap.components.floor
Floor
p590
(dp591
g29
I01
sg30
g122
sg32
(imap.components.point
Point
p592
(dp593
g35
I6
sg36
I11
sbsba(imap.components.wall
Wall
p594
(dp595
g29
I00
sg30
g41
sg32
(imap.components.point
Point
p596
(dp597
g35
I6
sg36
I12
sbsba(imap.components.floor
Floor
p598
(dp599
g29
I01
sg30
g122
sg32
(imap.components.point
Point
p600
(dp601
g35
I6
sg36
I13
sbsba(imap.components.floor
Floor
p602
(dp603
g29
I01
sg30
g122
sg32
(imap.components.point
Point
p604
(dp605
g35
I6
sg36
I14
sbsba(imap.components.wall
Wall
p606
(dp607
g29
I00
sg30
g41
sg32
(imap.components.point
Point
p608
(dp609
g35
I6
sg36
I15
sbsba(imap.components.floor
Floor
p610
(dp611
g29
I01
sg30
g122
sg32
(imap.components.point
Point
p612
(dp613
g35
I6
sg36
I16
sbsba(imap.components.wall
Wall
p614
(dp615
g29
I00
sg30
g41
sg32
(imap.components.point
Point
p616
(dp617
g35
I6
sg36
I17
sbsba(imap.components.floor
Floor
p618
(dp619
g29
I01
sg30
g122
sg32
(imap.components.point
Point
p620
(dp621
g35
I6
sg36
I18
sbsba(imap.components.wall
Wall
p622
(dp623
g29
I00
sg30
g41
sg32
(imap.components.point
Point
p624
(dp625
g35
I6
sg36
I19
sbsba(imap.components.empty
Empty
p626
(dp627
g29
I00
sg30
g122
sg32
(imap.components.point
Point
p628
(dp629
g35
I6
sg36
I20
sbsba(imap.components.empty
Empty
p630
(dp631
g29
I00
sg30
g122
sg32
(imap.components.point
Point
p632
(dp633
g35
I7
sg36
I0
sbsba(imap.components.empty
Empty
p634
(dp635
g29
I00
sg30
g122
sg32
(imap.components.point
Point
p636
(dp637
g35
I7
sg36
I1
sbsba(imap.components.empty
Empty
p638
(dp639
g29
I00
sg30
g122
sg32
(imap.components.point
Point
p640
(dp641
g35
I7
sg36
I2
sbsba(imap.components.wall
Wall
p642
(dp643
g29
I00
sg30
g41
sg32
(imap.components.point
Point
p644
(dp645
g35
I7
sg36
I3
sbsba(imap.components.floor
Floor
p646
(dp647
g29
I01
sg30
g122
sg32
(imap.components.point
Point
p648
(dp649
g35
I7
sg36
I4
sbsba(imap.components.floor
Floor
p650
(dp651
g29
I01
sg30
g122
sg32
(imap.components.point
Point
p652
(dp653
g35
I7
sg36
I5
sbsba(imap.components.floor
Floor
p654
(dp655
g29
I01
sg30
g122
sg32
(imap.components.point
Point
p656
(dp657
g35
I7
sg36
I6
sbsba(imap.components.floor
Floor
p658
(dp659
g29
I01
sg30
g122
sg32
(imap.components.point
Point
p660
(dp661
g35
I7
sg36
I7
sbsba(imap.components.door
Door
p662
(dp663
g29
I01
sg30
g171
sg32
(imap.components.point
Point
p664
(dp665
g35
I7
sg36
I8
sbsba(imap.components.floor
Floor
p666
(dp667
g29
I01
sg30
g122
sg32
(imap.components.point
Point
p668
(dp669
g35
I7
sg36
I9
sbsba(imap.components.wall
Wall
p670
(dp671
g29
I00
sg30
g41
sg32
(imap.components.point
Point
p672
(dp673
g35
I7
sg36
I10
sbsba(imap.components.floor
Floor
p674
(dp675
g29
I01
sg30
g122
sg32
(imap.components.point
Point
p676
(dp677
g35
I7
sg36
I11
sbsba(imap.components.door
Door
p678
(dp679
g29
I01
sg30
g171
sg32
(imap.components.point
Point
p680
(dp681
g35
I7
sg36
I12
sbsba(imap.components.floor
Floor
p682
(dp683
g29
I01
sg30
g122
sg32
(imap.components.point
Point
p684
(dp685
g35
I7
sg36
I13
sbsba(imap.components.floor
Floor
p686
(dp687
g29
I01
sg30
g122
sg32
(imap.components.point
Point
p688
(dp689
g35
I7
sg36
I14
sbsba(imap.components.wall
Wall
p690
(dp691
g29
I00
sg30
g41
sg32
(imap.components.point
Point
p692
(dp693
g35
I7
sg36
I15
sbsba(imap.components.floor
Floor
p694
(dp695
g29
I01
sg30
g122
sg32
(imap.components.point
Point
p696
(dp697
g35
I7
sg36
I16
sbsba(imap.components.wall
Wall
p698
(dp699
g29
I00
sg30
g41
sg32
(imap.components.point
Point
p700
(dp701
g35
I7
sg36
I17
sbsba(imap.components.floor
Floor
p702
(dp703
g29
I01
sg30
g122
sg32
(imap.components.point
Point
p704
(dp705
g35
I7
sg36
I18
sbsba(imap.components.wall
Wall
p706
(dp707
g29
I00
sg30
g41
sg32
(imap.components.point
Point
p708
(dp709
g35
I7
sg36
I19
sbsba(imap.components.empty
Empty
p710
(dp711
g29
I00
sg30
g122
sg32
(imap.components.point
Point
p712
(dp713
g35
I7
sg36
I20
sbsba(imap.components.empty
Empty
p714
(dp715
g29
I00
sg30
g122
sg32
(imap.components.point
Point
p716
(dp717
g35
I8
sg36
I0
sbsba(imap.components.empty
Empty
p718
(dp719
g29
I00
sg30
g122
sg32
(imap.components.point
Point
p720
(dp721
g35
I8
sg36
I1
sbsba(imap.components.empty
Empty
p722
(dp723
g29
I00
sg30
g122
sg32
(imap.components.point
Point
p724
(dp725
g35
I8
sg36
I2
sbsba(imap.components.wall
Wall
p726
(dp727
g29
I00
sg30
g41
sg32
(imap.components.point
Point
p728
(dp729
g35
I8
sg36
I3
sbsba(imap.components.floor
Floor
p730
(dp731
g29
I01
sg30
g122
sg32
(imap.components.point
Point
p732
(dp733
g35
I8
sg36
I4
sbsba(imap.components.floor
Floor
p734
(dp735
g29
I01
sg30
g122
sg32
(imap.components.point
Point
p736
(dp737
g35
I8
sg36
I5
sbsba(imap.components.floor
Floor
p738
(dp739
g29
I01
sg30
g122
sg32
(imap.components.point
Point
p740
(dp741
g35
I8
sg36
I6
sbsba(imap.components.floor
Floor
p742
(dp743
g29
I01
sg30
g122
sg32
(imap.components.point
Point
p744
(dp745
g35
I8
sg36
I7
sbsba(imap.components.wall
Wall
p746
(dp747
g29
I00
sg30
g41
sg32
(imap.components.point
Point
p748
(dp749
g35
I8
sg36
I8
sbsba(imap.components.wall
Wall
p750
(dp751
g29
I00
sg30
g41
sg32
(imap.components.point
Point
p752
(dp753
g35
I8
sg36
I9
sbsba(imap.components.wall
Wall
p754
(dp755
g29
I00
sg30
g41
sg32
(imap.components.point
Point
p756
(dp757
g35
I8
sg36
I10
sbsba(imap.components.floor
Floor
p758
(dp759
g29
I01
sg30
g122
sg32
(imap.components.point
Point
p760
(dp761
g35
I8
sg36
I11
sbsba(imap.components.wall
Wall
p762
(dp763
g29
I00
sg30
g41
sg32
(imap.components.point
Point
p764
(dp765
g35
I8
sg36
I12
sbsba(imap.components.wall
Wall
p766
(dp767
g29
I00
sg30
g41
sg32
(imap.components.point
Point
p768
(dp769
g35
I8
sg36
I13
sbsba(imap.components.wall
Wall
p770
(dp771
g29
I00
sg30
g41
sg32
(imap.components.point
Point
p772
(dp773
g35
I8
sg36
I14
sbsba(imap.components.wall
Wall
p774
(dp775
g29
I00
sg30
g41
sg32
(imap.components.point
Point
p776
(dp777
g35
I8
sg36
I15
sbsba(imap.components.floor
Floor
p778
(dp779
g29
I01
sg30
g122
sg32
(imap.components.point
Point
p780
(dp781
g35
I8
sg36
I16
sbsba(imap.components.wall
Wall
p782
(dp783
g29
I00
sg30
g41
sg32
(imap.components.point
Point
p784
(dp785
g35
I8
sg36
I17
sbsba(imap.components.floor
Floor
p786
(dp787
g29
I01
sg30
g122
sg32
(imap.components.point
Point
p788
(dp789
g35
I8
sg36
I18
sbsba(imap.components.wall
Wall
p790
(dp791
g29
I00
sg30
g41
sg32
(imap.components.point
Point
p792
(dp793
g35
I8
sg36
I19
sbsba(imap.components.empty
Empty
p794
(dp795
g29
I00
sg30
g122
sg32
(imap.components.point
Point
p796
(dp797
g35
I8
sg36
I20
sbsba(imap.components.empty
Empty
p798
(dp799
g29
I00
sg30
g122
sg32
(imap.components.point
Point
p800
(dp801
g35
I9
sg36
I0
sbsba(imap.components.empty
Empty
p802
(dp803
g29
I00
sg30
g122
sg32
(imap.components.point
Point
p804
(dp805
g35
I9
sg36
I1
sbsba(imap.components.empty
Empty
p806
(dp807
g29
I00
sg30
g122
sg32
(imap.components.point
Point
p808
(dp809
g35
I9
sg36
I2
sbsba(imap.components.empty
Empty
p810
(dp811
g29
I00
sg30
g122
sg32
(imap.components.point
Point
p812
(dp813
g35
I9
sg36
I3
sbsba(imap.components.wall
Wall
p814
(dp815
g29
I00
sg30
g41
sg32
(imap.components.point
Point
p816
(dp817
g35
I9
sg36
I4
sbsba(imap.components.wall
Wall
p818
(dp819
g29
I00
sg30
g41
sg32
(imap.components.point
Point
p820
(dp821
g35
I9
sg36
I5
sbsba(imap.components.wall
Wall
p822
(dp823
g29
I00
sg30
g41
sg32
(imap.components.point
Point
p824
(dp825
g35
I9
sg36
I6
sbsba(imap.components.door
Door
p826
(dp827
g29
I01
sg30
g171
sg32
(imap.components.point
Point
p828
(dp829
g35
I9
sg36
I7
sbsba(imap.components.wall
Wall
p830
(dp831
g29
I00
sg30
g41
sg32
(imap.components.point
Point
p832
(dp833
g35
I9
sg36
I8
sbsba(imap.components.floor
Floor
p834
(dp835
g29
I01
sg30
g122
sg32
(imap.components.point
Point
p836
(dp837
g35
I9
sg36
I9
sbsba(imap.components.floor
Floor
p838
(dp839
g29
I01
sg30
g122
sg32
(imap.components.point
Point
p840
(dp841
g35
I9
sg36
I10
sbsba(imap.components.floor
Floor
p842
(dp843
g29
I01
sg30
g122
sg32
(imap.components.point
Point
p844
(dp845
g35
I9
sg36
I11
sbsba(imap.components.wall
Wall
p846
(dp847
g29
I00
sg30
g41
sg32
(imap.components.point
Point
p848
(dp849
g35
I9
sg36
I12
sbsba(imap.components.wall
Wall
p850
(dp851
g29
I00
sg30
g41
sg32
(imap.components.point
Point
p852
(dp853
g35
I9
sg36
I13
sbsba(imap.components.floor
Floor
p854
(dp855
g29
I01
sg30
g122
sg32
(imap.components.point
Point
p856
(dp857
g35
I9
sg36
I14
sbsba(imap.components.wall
Wall
p858
(dp859
g29
I00
sg30
g41
sg32
(imap.components.point
Point
p860
(dp861
g35
I9
sg36
I15
sbsba(imap.components.floor
Floor
p862
(dp863
g29
I01
sg30
g122
sg32
(imap.components.point
Point
p864
(dp865
g35
I9
sg36
I16
sbsba(imap.components.wall
Wall
p866
(dp867
g29
I00
sg30
g41
sg32
(imap.components.point
Point
p868
(dp869
g35
I9
sg36
I17
sbsba(imap.components.floor
Floor
p870
(dp871
g29
I01
sg30
g122
sg32
(imap.components.point
Point
p872
(dp873
g35
I9
sg36
I18
sbsba(imap.components.wall
Wall
p874
(dp875
g29
I00
sg30
g41
sg32
(imap.components.point
Point
p876
(dp877
g35
I9
sg36
I19
sbsba(imap.components.empty
Empty
p878
(dp879
g29
I00
sg30
g122
sg32
(imap.components.point
Point
p880
(dp881
g35
I9
sg36
I20
sbsba(imap.components.empty
Empty
p882
(dp883
g29
I00
sg30
g122
sg32
(imap.components.point
Point
p884
(dp885
g35
I10
sg36
I0
sbsba(imap.components.empty
Empty
p886
(dp887
g29
I00
sg30
g122
sg32
(imap.components.point
Point
p888
(dp889
g35
I10
sg36
I1
sbsba(imap.components.empty
Empty
p890
(dp891
g29
I00
sg30
g122
sg32
(imap.components.point
Point
p892
(dp893
g35
I10
sg36
I2
sbsba(imap.components.empty
Empty
p894
(dp895
g29
I00
sg30
g122
sg32
(imap.components.point
Point
p896
(dp897
g35
I10
sg36
I3
sbsba(imap.components.empty
Empty
p898
(dp899
g29
I00
sg30
g122
sg32
(imap.components.point
Point
p900
(dp901
g35
I10
sg36
I4
sbsba(imap.components.empty
Empty
p902
(dp903
g29
I00
sg30
g122
sg32
(imap.components.point
Point
p904
(dp905
g35
I10
sg36
I5
sbsba(imap.components.wall
Wall
p906
(dp907
g29
I00
sg30
g41
sg32
(imap.components.point
Point
p908
(dp909
g35
I10
sg36
I6
sbsba(imap.components.floor
Floor
p910
(dp911
g29
I01
sg30
g122
sg32
(imap.components.point
Point
p912
(dp913
g35
I10
sg36
I7
sbsba(imap.components.floor
Floor
p914
(dp915
g29
I01
sg30
g122
sg32
(imap.components.point
Point
p916
(dp917
g35
I10
sg36
I8
sbsba(imap.components.floor
Floor
p918
(dp919
g29
I01
sg30
g122
sg32
(imap.components.point
Point
p920
(dp921
g35
I10
sg36
I9
sbsba(imap.components.floor
Floor
p922
(dp923
g29
I01
sg30
g122
sg32
(imap.components.point
Point
p924
(dp925
g35
I10
sg36
I10
sbsba(imap.components.floor
Floor
p926
(dp927
g29
I01
sg30
g122
sg32
(imap.components.point
Point
p928
(dp929
g35
I10
sg36
I11
sbsba(imap.components.floor
Floor
p930
(dp931
g29
I01
sg30
g122
sg32
(imap.components.point
Point
p932
(dp933
g35
I10
sg36
I12
sbsba(imap.components.wall
Wall
p934
(dp935
g29
I00
sg30
g41
sg32
(imap.components.point
Point
p936
(dp937
g35
I10
sg36
I13
sbsba(imap.components.floor
Floor
p938
(dp939
g29
I01
sg30
g122
sg32
(imap.components.point
Point
p940
(dp941
g35
I10
sg36
I14
sbsba(imap.components.door
Door
p942
(dp943
g29
I01
sg30
g171
sg32
(imap.components.point
Point
p944
(dp945
g35
I10
sg36
I15
sbsba(imap.components.floor
Floor
p946
(dp947
g29
I01
sg30
g122
sg32
(imap.components.point
Point
p948
(dp949
g35
I10
sg36
I16
sbsba(imap.components.floor
Floor
p950
(dp951
g29
I01
sg30
g122
sg32
(imap.components.point
Point
p952
(dp953
g35
I10
sg36
I17
sbsba(imap.components.floor
Floor
p954
(dp955
g29
I01
sg30
g122
sg32
(imap.components.point
Point
p956
(dp957
g35
I10
sg36
I18
sbsba(imap.components.wall
Wall
p958
(dp959
g29
I00
sg30
g41
sg32
(imap.components.point
Point
p960
(dp961
g35
I10
sg36
I19
sbsba(imap.components.empty
Empty
p962
(dp963
g29
I00
sg30
g122
sg32
(imap.components.point
Point
p964
(dp965
g35
I10
sg36
I20
sbsba(imap.components.empty
Empty
p966
(dp967
g29
I00
sg30
g122
sg32
(imap.components.point
Point
p968
(dp969
g35
I11
sg36
I0
sbsba(imap.components.empty
Empty
p970
(dp971
g29
I00
sg30
g122
sg32
(imap.components.point
Point
p972
(dp973
g35
I11
sg36
I1
sbsba(imap.components.empty
Empty
p974
(dp975
g29
I00
sg30
g122
sg32
(imap.components.point
Point
p976
(dp977
g35
I11
sg36
I2
sbsba(imap.components.empty
Empty
p978
(dp979
g29
I00
sg30
g122
sg32
(imap.components.point
Point
p980
(dp981
g35
I11
sg36
I3
sbsba(imap.components.empty
Empty
p982
(dp983
g29
I00
sg30
g122
sg32
(imap.components.point
Point
p984
(dp985
g35
I11
sg36
I4
sbsba(imap.components.empty
Empty
p986
(dp987
g29
I00
sg30
g122
sg32
(imap.components.point
Point
p988
(dp989
g35
I11
sg36
I5
sbsba(imap.components.wall
Wall
p990
(dp991
g29
I00
sg30
g41
sg32
(imap.components.point
Point
p992
(dp993
g35
I11
sg36
I6
sbsba(imap.components.wall
Wall
p994
(dp995
g29
I00
sg30
g41
sg32
(imap.components.point
Point
p996
(dp997
g35
I11
sg36
I7
sbsba(imap.components.wall
Wall
p998
(dp999
g29
I00
sg30
g41
sg32
(imap.components.point
Point
p1000
(dp1001
g35
I11
sg36
I8
sbsba(imap.components.wall
Wall
p1002
(dp1003
g29
I00
sg30
g41
sg32
(imap.components.point
Point
p1004
(dp1005
g35
I11
sg36
I9
sbsba(imap.components.wall
Wall
p1006
(dp1007
g29
I00
sg30
g41
sg32
(imap.components.point
Point
p1008
(dp1009
g35
I11
sg36
I10
sbsba(imap.components.wall
Wall
p1010
(dp1011
g29
I00
sg30
g41
sg32
(imap.components.point
Point
p1012
(dp1013
g35
I11
sg36
I11
sbsba(imap.components.wall
Wall
p1014
(dp1015
g29
I00
sg30
g41
sg32
(imap.components.point
Point
p1016
(dp1017
g35
I11
sg36
I12
sbsba(imap.components.wall
Wall
p1018
(dp1019
g29
I00
sg30
g41
sg32
(imap.components.point
Point
p1020
(dp1021
g35
I11
sg36
I13
sbsba(imap.components.floor
Floor
p1022
(dp1023
g29
I01
sg30
g122
sg32
(imap.components.point
Point
p1024
(dp1025
g35
I11
sg36
I14
sbsba(imap.components.wall
Wall
p1026
(dp1027
g29
I00
sg30
g41
sg32
(imap.components.point
Point
p1028
(dp1029
g35
I11
sg36
I15
sbsba(imap.components.wall
Wall
p1030
(dp1031
g29
I00
sg30
g41
sg32
(imap.components.point
Point
p1032
(dp1033
g35
I11
sg36
I16
sbsba(imap.components.wall
Wall
p1034
(dp1035
g29
I00
sg30
g41
sg32
(imap.components.point
Point
p1036
(dp1037
g35
I11
sg36
I17
sbsba(imap.components.wall
Wall
p1038
(dp1039
g29
I00
sg30
g41
sg32
(imap.components.point
Point
p1040
(dp1041
g35
I11
sg36
I18
sbsba(imap.components.wall
Wall
p1042
(dp1043
g29
I00
sg30
g41
sg32
(imap.components.point
Point
p1044
(dp1045
g35
I11
sg36
I19
sbsba(imap.components.empty
Empty
p1046
(dp1047
g29
I00
sg30
g122
sg32
(imap.components.point
Point
p1048
(dp1049
g35
I11
sg36
I20
sbsba(imap.components.empty
Empty
p1050
(dp1051
g29
I00
sg30
g122
sg32
(imap.components.point
Point
p1052
(dp1053
g35
I12
sg36
I0
sbsba(imap.components.empty
Empty
p1054
(dp1055
g29
I00
sg30
g122
sg32
(imap.components.point
Point
p1056
(dp1057
g35
I12
sg36
I1
sbsba(imap.components.empty
Empty
p1058
(dp1059
g29
I00
sg30
g122
sg32
(imap.components.point
Point
p1060
(dp1061
g35
I12
sg36
I2
sbsba(imap.components.empty
Empty
p1062
(dp1063
g29
I00
sg30
g122
sg32
(imap.components.point
Point
p1064
(dp1065
g35
I12
sg36
I3
sbsba(imap.components.empty
Empty
p1066
(dp1067
g29
I00
sg30
g122
sg32
(imap.components.point
Point
p1068
(dp1069
g35
I12
sg36
I4
sbsba(imap.components.empty
Empty
p1070
(dp1071
g29
I00
sg30
g122
sg32
(imap.components.point
Point
p1072
(dp1073
g35
I12
sg36
I5
sbsba(imap.components.wall
Wall
p1074
(dp1075
g29
I00
sg30
g41
sg32
(imap.components.point
Point
p1076
(dp1077
g35
I12
sg36
I6
sbsba(imap.components.floor
Floor
p1078
(dp1079
g29
I01
sg30
g122
sg32
(imap.components.point
Point
p1080
(dp1081
g35
I12
sg36
I7
sbsba(imap.components.floor
Floor
p1082
(dp1083
g29
I01
sg30
g122
sg32
(imap.components.point
Point
p1084
(dp1085
g35
I12
sg36
I8
sbsba(imap.components.floor
Floor
p1086
(dp1087
g29
I01
sg30
g122
sg32
(imap.components.point
Point
p1088
(dp1089
g35
I12
sg36
I9
sbsba(imap.components.floor
Floor
p1090
(dp1091
g29
I01
sg30
g122
sg32
(imap.components.point
Point
p1092
(dp1093
g35
I12
sg36
I10
sbsba(imap.components.wall
Wall
p1094
(dp1095
g29
I00
sg30
g41
sg32
(imap.components.point
Point
p1096
(dp1097
g35
I12
sg36
I11
sbsba(imap.components.floor
Floor
p1098
(dp1099
g29
I01
sg30
g122
sg32
(imap.components.point
Point
p1100
(dp1101
g35
I12
sg36
I12
sbsba(imap.components.floor
Floor
p1102
(dp1103
g29
I01
sg30
g122
sg32
(imap.components.point
Point
p1104
(dp1105
g35
I12
sg36
I13
sbsba(imap.components.floor
Floor
p1106
(dp1107
g29
I01
sg30
g122
sg32
(imap.components.point
Point
p1108
(dp1109
g35
I12
sg36
I14
sbsba(imap.components.floor
Floor
p1110
(dp1111
g29
I01
sg30
g122
sg32
(imap.components.point
Point
p1112
(dp1113
g35
I12
sg36
I15
sbsba(imap.components.floor
Floor
p1114
(dp1115
g29
I01
sg30
g122
sg32
(imap.components.point
Point
p1116
(dp1117
g35
I12
sg36
I16
sbsba(imap.components.floor
Floor
p1118
(dp1119
g29
I01
sg30
g122
sg32
(imap.components.point
Point
p1120
(dp1121
g35
I12
sg36
I17
sbsba(imap.components.floor
Floor
p1122
(dp1123
g29
I01
sg30
g122
sg32
(imap.components.point
Point
p1124
(dp1125
g35
I12
sg36
I18
sbsba(imap.components.wall
Wall
p1126
(dp1127
g29
I00
sg30
g41
sg32
(imap.components.point
Point
p1128
(dp1129
g35
I12
sg36
I19
sbsba(imap.components.empty
Empty
p1130
(dp1131
g29
I00
sg30
g122
sg32
(imap.components.point
Point
p1132
(dp1133
g35
I12
sg36
I20
sbsba(imap.components.empty
Empty
p1134
(dp1135
g29
I00
sg30
g122
sg32
(imap.components.point
Point
p1136
(dp1137
g35
I13
sg36
I0
sbsba(imap.components.empty
Empty
p1138
(dp1139
g29
I00
sg30
g122
sg32
(imap.components.point
Point
p1140
(dp1141
g35
I13
sg36
I1
sbsba(imap.components.empty
Empty
p1142
(dp1143
g29
I00
sg30
g122
sg32
(imap.components.point
Point
p1144
(dp1145
g35
I13
sg36
I2
sbsba(imap.components.empty
Empty
p1146
(dp1147
g29
I00
sg30
g122
sg32
(imap.components.point
Point
p1148
(dp1149
g35
I13
sg36
I3
sbsba(imap.components.empty
Empty
p1150
(dp1151
g29
I00
sg30
g122
sg32
(imap.components.point
Point
p1152
(dp1153
g35
I13
sg36
I4
sbsba(imap.components.empty
Empty
p1154
(dp1155
g29
I00
sg30
g122
sg32
(imap.components.point
Point
p1156
(dp1157
g35
I13
sg36
I5
sbsba(imap.components.door
Door
p1158
(dp1159
g29
I01
sg30
g171
sg32
(imap.components.point
Point
p1160
(dp1161
g35
I13
sg36
I6
sbsba(imap.components.floor
Floor
p1162
(dp1163
g29
I01
sg30
g122
sg32
(imap.components.point
Point
p1164
(dp1165
g35
I13
sg36
I7
sbsba(imap.components.wall
Wall
p1166
(dp1167
g29
I00
sg30
g41
sg32
(imap.components.point
Point
p1168
(dp1169
g35
I13
sg36
I8
sbsba(imap.components.wall
Wall
p1170
(dp1171
g29
I00
sg30
g41
sg32
(imap.components.point
Point
p1172
(dp1173
g35
I13
sg36
I9
sbsba(imap.components.floor
Floor
p1174
(dp1175
g29
I01
sg30
g122
sg32
(imap.components.point
Point
p1176
(dp1177
g35
I13
sg36
I10
sbsba(imap.components.wall
Wall
p1178
(dp1179
g29
I00
sg30
g41
sg32
(imap.components.point
Point
p1180
(dp1181
g35
I13
sg36
I11
sbsba(imap.components.wall
Wall
p1182
(dp1183
g29
I00
sg30
g41
sg32
(imap.components.point
Point
p1184
(dp1185
g35
I13
sg36
I12
sbsba(imap.components.wall
Wall
p1186
(dp1187
g29
I00
sg30
g41
sg32
(imap.components.point
Point
p1188
(dp1189
g35
I13
sg36
I13
sbsba(imap.components.wall
Wall
p1190
(dp1191
g29
I00
sg30
g41
sg32
(imap.components.point
Point
p1192
(dp1193
g35
I13
sg36
I14
sbsba(imap.components.wall
Wall
p1194
(dp1195
g29
I00
sg30
g41
sg32
(imap.components.point
Point
p1196
(dp1197
g35
I13
sg36
I15
sbsba(imap.components.wall
Wall
p1198
(dp1199
g29
I00
sg30
g41
sg32
(imap.components.point
Point
p1200
(dp1201
g35
I13
sg36
I16
sbsba(imap.components.wall
Wall
p1202
(dp1203
g29
I00
sg30
g41
sg32
(imap.components.point
Point
p1204
(dp1205
g35
I13
sg36
I17
sbsba(imap.components.floor
Floor
p1206
(dp1207
g29
I01
sg30
g122
sg32
(imap.components.point
Point
p1208
(dp1209
g35
I13
sg36
I18
sbsba(imap.components.wall
Wall
p1210
(dp1211
g29
I00
sg30
g41
sg32
(imap.components.point
Point
p1212
(dp1213
g35
I13
sg36
I19
sbsba(imap.components.empty
Empty
p1214
(dp1215
g29
I00
sg30
g122
sg32
(imap.components.point
Point
p1216
(dp1217
g35
I13
sg36
I20
sbsba(imap.components.empty
Empty
p1218
(dp1219
g29
I00
sg30
g122
sg32
(imap.components.point
Point
p1220
(dp1221
g35
I14
sg36
I0
sbsba(imap.components.empty
Empty
p1222
(dp1223
g29
I00
sg30
g122
sg32
(imap.components.point
Point
p1224
(dp1225
g35
I14
sg36
I1
sbsba(imap.components.empty
Empty
p1226
(dp1227
g29
I00
sg30
g122
sg32
(imap.components.point
Point
p1228
(dp1229
g35
I14
sg36
I2
sbsba(imap.components.empty
Empty
p1230
(dp1231
g29
I00
sg30
g122
sg32
(imap.components.point
Point
p1232
(dp1233
g35
I14
sg36
I3
sbsba(imap.components.empty
Empty
p1234
(dp1235
g29
I00
sg30
g122
sg32
(imap.components.point
Point
p1236
(dp1237
g35
I14
sg36
I4
sbsba(imap.components.empty
Empty
p1238
(dp1239
g29
I00
sg30
g122
sg32
(imap.components.point
Point
p1240
(dp1241
g35
I14
sg36
I5
sbsba(imap.components.wall
Wall
p1242
(dp1243
g29
I00
sg30
g41
sg32
(imap.components.point
Point
p1244
(dp1245
g35
I14
sg36
I6
sbsba(imap.components.wall
Wall
p1246
(dp1247
g29
I00
sg30
g41
sg32
(imap.components.point
Point
p1248
(dp1249
g35
I14
sg36
I7
sbsba(imap.components.wall
Wall
p1250
(dp1251
g29
I00
sg30
g41
sg32
(imap.components.point
Point
p1252
(dp1253
g35
I14
sg36
I8
sbsba(imap.components.wall
Wall
p1254
(dp1255
g29
I00
sg30
g41
sg32
(imap.components.point
Point
p1256
(dp1257
g35
I14
sg36
I9
sbsba(imap.components.floor
Floor
p1258
(dp1259
g29
I01
sg30
g122
sg32
(imap.components.point
Point
p1260
(dp1261
g35
I14
sg36
I10
sbsba(imap.components.wall
Wall
p1262
(dp1263
g29
I00
sg30
g41
sg32
(imap.components.point
Point
p1264
(dp1265
g35
I14
sg36
I11
sbsba(imap.components.floor
Floor
p1266
(dp1267
g29
I01
sg30
g122
sg32
(imap.components.point
Point
p1268
(dp1269
g35
I14
sg36
I12
sbsba(imap.components.floor
Floor
p1270
(dp1271
g29
I01
sg30
g122
sg32
(imap.components.point
Point
p1272
(dp1273
g35
I14
sg36
I13
sbsba(imap.components.floor
Floor
p1274
(dp1275
g29
I01
sg30
g122
sg32
(imap.components.point
Point
p1276
(dp1277
g35
I14
sg36
I14
sbsba(imap.components.floor
Floor
p1278
(dp1279
g29
I01
sg30
g122
sg32
(imap.components.point
Point
p1280
(dp1281
g35
I14
sg36
I15
sbsba(imap.components.floor
Floor
p1282
(dp1283
g29
I01
sg30
g122
sg32
(imap.components.point
Point
p1284
(dp1285
g35
I14
sg36
I16
sbsba(imap.components.floor
Floor
p1286
(dp1287
g29
I01
sg30
g122
sg32
(imap.components.point
Point
p1288
(dp1289
g35
I14
sg36
I17
sbsba(imap.components.floor
Floor
p1290
(dp1291
g29
I01
sg30
g122
sg32
(imap.components.point
Point
p1292
(dp1293
g35
I14
sg36
I18
sbsba(imap.components.wall
Wall
p1294
(dp1295
g29
I00
sg30
g41
sg32
(imap.components.point
Point
p1296
(dp1297
g35
I14
sg36
I19
sbsba(imap.components.empty
Empty
p1298
(dp1299
g29
I00
sg30
g122
sg32
(imap.components.point
Point
p1300
(dp1301
g35
I14
sg36
I20
sbsba(imap.components.empty
Empty
p1302
(dp1303
g29
I00
sg30
g122
sg32
(imap.components.point
Point
p1304
(dp1305
g35
I15
sg36
I0
sbsba(imap.components.empty
Empty
p1306
(dp1307
g29
I00
sg30
g122
sg32
(imap.components.point
Point
p1308
(dp1309
g35
I15
sg36
I1
sbsba(imap.components.empty
Empty
p1310
(dp1311
g29
I00
sg30
g122
sg32
(imap.components.point
Point
p1312
(dp1313
g35
I15
sg36
I2
sbsba(imap.components.empty
Empty
p1314
(dp1315
g29
I00
sg30
g122
sg32
(imap.components.point
Point
p1316
(dp1317
g35
I15
sg36
I3
sbsba(imap.components.empty
Empty
p1318
(dp1319
g29
I00
sg30
g122
sg32
(imap.components.point
Point
p1320
(dp1321
g35
I15
sg36
I4
sbsba(imap.components.empty
Empty
p1322
(dp1323
g29
I00
sg30
g122
sg32
(imap.components.point
Point
p1324
(dp1325
g35
I15
sg36
I5
sbsba(imap.components.wall
Wall
p1326
(dp1327
g29
I00
sg30
g41
sg32
(imap.components.point
Point
p1328
(dp1329
g35
I15
sg36
I6
sbsba(imap.components.floor
Floor
p1330
(dp1331
g29
I01
sg30
g122
sg32
(imap.components.point
Point
p1332
(dp1333
g35
I15
sg36
I7
sbsba(imap.components.floor
Floor
p1334
(dp1335
g29
I01
sg30
g122
sg32
(imap.components.point
Point
p1336
(dp1337
g35
I15
sg36
I8
sbsba(imap.components.door
Door
p1338
(dp1339
g29
I01
sg30
g171
sg32
(imap.components.point
Point
p1340
(dp1341
g35
I15
sg36
I9
sbsba(imap.components.floor
Floor
p1342
(dp1343
g29
I01
sg30
g122
sg32
(imap.components.point
Point
p1344
(dp1345
g35
I15
sg36
I10
sbsba(imap.components.wall
Wall
p1346
(dp1347
g29
I00
sg30
g41
sg32
(imap.components.point
Point
p1348
(dp1349
g35
I15
sg36
I11
sbsba(imap.components.floor
Floor
p1350
(dp1351
g29
I01
sg30
g122
sg32
(imap.components.point
Point
p1352
(dp1353
g35
I15
sg36
I12
sbsba(imap.components.wall
Wall
p1354
(dp1355
g29
I00
sg30
g41
sg32
(imap.components.point
Point
p1356
(dp1357
g35
I15
sg36
I13
sbsba(imap.components.door
Door
p1358
(dp1359
g29
I01
sg30
g171
sg32
(imap.components.point
Point
p1360
(dp1361
g35
I15
sg36
I14
sbsba(imap.components.wall
Wall
p1362
(dp1363
g29
I00
sg30
g41
sg32
(imap.components.point
Point
p1364
(dp1365
g35
I15
sg36
I15
sbsba(imap.components.wall
Wall
p1366
(dp1367
g29
I00
sg30
g41
sg32
(imap.components.point
Point
p1368
(dp1369
g35
I15
sg36
I16
sbsba(imap.components.wall
Wall
p1370
(dp1371
g29
I00
sg30
g41
sg32
(imap.components.point
Point
p1372
(dp1373
g35
I15
sg36
I17
sbsba(imap.components.wall
Wall
p1374
(dp1375
g29
I00
sg30
g41
sg32
(imap.components.point
Point
p1376
(dp1377
g35
I15
sg36
I18
sbsba(imap.components.wall
Wall
p1378
(dp1379
g29
I00
sg30
g41
sg32
(imap.components.point
Point
p1380
(dp1381
g35
I15
sg36
I19
sbsba(imap.components.empty
Empty
p1382
(dp1383
g29
I00
sg30
g122
sg32
(imap.components.point
Point
p1384
(dp1385
g35
I15
sg36
I20
sbsba(imap.components.empty
Empty
p1386
(dp1387
g29
I00
sg30
g122
sg32
(imap.components.point
Point
p1388
(dp1389
g35
I16
sg36
I0
sbsba(imap.components.empty
Empty
p1390
(dp1391
g29
I00
sg30
g122
sg32
(imap.components.point
Point
p1392
(dp1393
g35
I16
sg36
I1
sbsba(imap.components.empty
Empty
p1394
(dp1395
g29
I00
sg30
g122
sg32
(imap.components.point
Point
p1396
(dp1397
g35
I16
sg36
I2
sbsba(imap.components.empty
Empty
p1398
(dp1399
g29
I00
sg30
g122
sg32
(imap.components.point
Point
p1400
(dp1401
g35
I16
sg36
I3
sbsba(imap.components.empty
Empty
p1402
(dp1403
g29
I00
sg30
g122
sg32
(imap.components.point
Point
p1404
(dp1405
g35
I16
sg36
I4
sbsba(imap.components.empty
Empty
p1406
(dp1407
g29
I00
sg30
g122
sg32
(imap.components.point
Point
p1408
(dp1409
g35
I16
sg36
I5
sbsba(imap.components.wall
Wall
p1410
(dp1411
g29
I00
sg30
g41
sg32
(imap.components.point
Point
p1412
(dp1413
g35
I16
sg36
I6
sbsba(imap.components.floor
Floor
p1414
(dp1415
g29
I01
sg30
g122
sg32
(imap.components.point
Point
p1416
(dp1417
g35
I16
sg36
I7
sbsba(imap.components.floor
Floor
p1418
(dp1419
g29
I01
sg30
g122
sg32
(imap.components.point
Point
p1420
(dp1421
g35
I16
sg36
I8
sbsba(imap.components.wall
Wall
p1422
(dp1423
g29
I00
sg30
g41
sg32
(imap.components.point
Point
p1424
(dp1425
g35
I16
sg36
I9
sbsba(imap.components.floor
Floor
p1426
(dp1427
g29
I01
sg30
g122
sg32
(imap.components.point
Point
p1428
(dp1429
g35
I16
sg36
I10
sbsba(imap.components.wall
Wall
p1430
(dp1431
g29
I00
sg30
g41
sg32
(imap.components.point
Point
p1432
(dp1433
g35
I16
sg36
I11
sbsba(imap.components.floor
Floor
p1434
(dp1435
g29
I01
sg30
g122
sg32
(imap.components.point
Point
p1436
(dp1437
g35
I16
sg36
I12
sbsba(imap.components.wall
Wall
p1438
(dp1439
g29
I00
sg30
g41
sg32
(imap.components.point
Point
p1440
(dp1441
g35
I16
sg36
I13
sbsba(imap.components.empty
Empty
p1442
(dp1443
g29
I00
sg30
g122
sg32
(imap.components.point
Point
p1444
(dp1445
g35
I16
sg36
I14
sbsba(imap.components.empty
Empty
p1446
(dp1447
g29
I00
sg30
g122
sg32
(imap.components.point
Point
p1448
(dp1449
g35
I16
sg36
I15
sbsba(imap.components.empty
Empty
p1450
(dp1451
g29
I00
sg30
g122
sg32
(imap.components.point
Point
p1452
(dp1453
g35
I16
sg36
I16
sbsba(imap.components.empty
Empty
p1454
(dp1455
g29
I00
sg30
g122
sg32
(imap.components.point
Point
p1456
(dp1457
g35
I16
sg36
I17
sbsba(imap.components.empty
Empty
p1458
(dp1459
g29
I00
sg30
g122
sg32
(imap.components.point
Point
p1460
(dp1461
g35
I16
sg36
I18
sbsba(imap.components.empty
Empty
p1462
(dp1463
g29
I00
sg30
g122
sg32
(imap.components.point
Point
p1464
(dp1465
g35
I16
sg36
I19
sbsba(imap.components.empty
Empty
p1466
(dp1467
g29
I00
sg30
g122
sg32
(imap.components.point
Point
p1468
(dp1469
g35
I16
sg36
I20
sbsba(imap.components.wall
Wall
p1470
(dp1471
g29
I00
sg30
g41
sg32
(imap.components.point
Point
p1472
(dp1473
g35
I17
sg36
I0
sbsba(imap.components.wall
Wall
p1474
(dp1475
g29
I00
sg30
g41
sg32
(imap.components.point
Point
p1476
(dp1477
g35
I17
sg36
I1
sbsba(imap.components.wall
Wall
p1478
(dp1479
g29
I00
sg30
g41
sg32
(imap.components.point
Point
p1480
(dp1481
g35
I17
sg36
I2
sbsba(imap.components.wall
Wall
p1482
(dp1483
g29
I00
sg30
g41
sg32
(imap.components.point
Point
p1484
(dp1485
g35
I17
sg36
I3
sbsba(imap.components.wall
Wall
p1486
(dp1487
g29
I00
sg30
g41
sg32
(imap.components.point
Point
p1488
(dp1489
g35
I17
sg36
I4
sbsba(imap.components.wall
Wall
p1490
(dp1491
g29
I00
sg30
g41
sg32
(imap.components.point
Point
p1492
(dp1493
g35
I17
sg36
I5
sbsba(imap.components.wall
Wall
p1494
(dp1495
g29
I00
sg30
g41
sg32
(imap.components.point
Point
p1496
(dp1497
g35
I17
sg36
I6
sbsba(imap.components.floor
Floor
p1498
(dp1499
g29
I01
sg30
g122
sg32
(imap.components.point
Point
p1500
(dp1501
g35
I17
sg36
I7
sbsba(imap.components.floor
Floor
p1502
(dp1503
g29
I01
sg30
g122
sg32
(imap.components.point
Point
p1504
(dp1505
g35
I17
sg36
I8
sbsba(imap.components.wall
Wall
p1506
(dp1507
g29
I00
sg30
g41
sg32
(imap.components.point
Point
p1508
(dp1509
g35
I17
sg36
I9
sbsba(imap.components.floor
Floor
p1510
(dp1511
g29
I01
sg30
g122
sg32
(imap.components.point
Point
p1512
(dp1513
g35
I17
sg36
I10
sbsba(imap.components.wall
Wall
p1514
(dp1515
g29
I00
sg30
g41
sg32
(imap.components.point
Point
p1516
(dp1517
g35
I17
sg36
I11
sbsba(imap.components.floor
Floor
p1518
(dp1519
g29
I01
sg30
g122
sg32
(imap.components.point
Point
p1520
(dp1521
g35
I17
sg36
I12
sbsba(imap.components.wall
Wall
p1522
(dp1523
g29
I00
sg30
g41
sg32
(imap.components.point
Point
p1524
(dp1525
g35
I17
sg36
I13
sbsba(imap.components.empty
Empty
p1526
(dp1527
g29
I00
sg30
g122
sg32
(imap.components.point
Point
p1528
(dp1529
g35
I17
sg36
I14
sbsba(imap.components.empty
Empty
p1530
(dp1531
g29
I00
sg30
g122
sg32
(imap.components.point
Point
p1532
(dp1533
g35
I17
sg36
I15
sbsba(imap.components.empty
Empty
p1534
(dp1535
g29
I00
sg30
g122
sg32
(imap.components.point
Point
p1536
(dp1537
g35
I17
sg36
I16
sbsba(imap.components.empty
Empty
p1538
(dp1539
g29
I00
sg30
g122
sg32
(imap.components.point
Point
p1540
(dp1541
g35
I17
sg36
I17
sbsba(imap.components.empty
Empty
p1542
(dp1543
g29
I00
sg30
g122
sg32
(imap.components.point
Point
p1544
(dp1545
g35
I17
sg36
I18
sbsba(imap.components.empty
Empty
p1546
(dp1547
g29
I00
sg30
g122
sg32
(imap.components.point
Point
p1548
(dp1549
g35
I17
sg36
I19
sbsba(imap.components.empty
Empty
p1550
(dp1551
g29
I00
sg30
g122
sg32
(imap.components.point
Point
p1552
(dp1553
g35
I17
sg36
I20
sbsba(imap.components.wall
Wall
p1554
(dp1555
g29
I00
sg30
g41
sg32
(imap.components.point
Point
p1556
(dp1557
g35
I18
sg36
I0
sbsba(imap.components.floor
Floor
p1558
(dp1559
g29
I01
sg30
g122
sg32
(imap.components.point
Point
p1560
(dp1561
g35
I18
sg36
I1
sbsba(imap.components.floor
Floor
p1562
(dp1563
g29
I01
sg30
g122
sg32
(imap.components.point
Point
p1564
(dp1565
g35
I18
sg36
I2
sbsba(imap.components.floor
Floor
p1566
(dp1567
g29
I01
sg30
g122
sg32
(imap.components.point
Point
p1568
(dp1569
g35
I18
sg36
I3
sbsba(imap.components.floor
Floor
p1570
(dp1571
g29
I01
sg30
g122
sg32
(imap.components.point
Point
p1572
(dp1573
g35
I18
sg36
I4
sbsba(imap.components.floor
Floor
p1574
(dp1575
g29
I01
sg30
g122
sg32
(imap.components.point
Point
p1576
(dp1577
g35
I18
sg36
I5
sbsba(imap.components.floor
Floor
p1578
(dp1579
g29
I01
sg30
g122
sg32
(imap.components.point
Point
p1580
(dp1581
g35
I18
sg36
I6
sbsba(imap.components.floor
Floor
p1582
(dp1583
g29
I01
sg30
g122
sg32
(imap.components.point
Point
p1584
(dp1585
g35
I18
sg36
I7
sbsba(imap.components.floor
Floor
p1586
(dp1587
g29
I01
sg30
g122
sg32
(imap.components.point
Point
p1588
(dp1589
g35
I18
sg36
I8
sbsba(imap.components.wall
Wall
p1590
(dp1591
g29
I00
sg30
g41
sg32
(imap.components.point
Point
p1592
(dp1593
g35
I18
sg36
I9
sbsba(imap.components.floor
Floor
p1594
(dp1595
g29
I01
sg30
g122
sg32
(imap.components.point
Point
p1596
(dp1597
g35
I18
sg36
I10
sbsba(imap.components.door
Door
p1598
(dp1599
g29
I01
sg30
g171
sg32
(imap.components.point
Point
p1600
(dp1601
g35
I18
sg36
I11
sbsba(imap.components.floor
Floor
p1602
(dp1603
g29
I01
sg30
g122
sg32
(imap.components.point
Point
p1604
(dp1605
g35
I18
sg36
I12
sbsba(imap.components.wall
Wall
p1606
(dp1607
g29
I00
sg30
g41
sg32
(imap.components.point
Point
p1608
(dp1609
g35
I18
sg36
I13
sbsba(imap.components.empty
Empty
p1610
(dp1611
g29
I00
sg30
g122
sg32
(imap.components.point
Point
p1612
(dp1613
g35
I18
sg36
I14
sbsba(imap.components.empty
Empty
p1614
(dp1615
g29
I00
sg30
g122
sg32
(imap.components.point
Point
p1616
(dp1617
g35
I18
sg36
I15
sbsba(imap.components.empty
Empty
p1618
(dp1619
g29
I00
sg30
g122
sg32
(imap.components.point
Point
p1620
(dp1621
g35
I18
sg36
I16
sbsba(imap.components.empty
Empty
p1622
(dp1623
g29
I00
sg30
g122
sg32
(imap.components.point
Point
p1624
(dp1625
g35
I18
sg36
I17
sbsba(imap.components.empty
Empty
p1626
(dp1627
g29
I00
sg30
g122
sg32
(imap.components.point
Point
p1628
(dp1629
g35
I18
sg36
I18
sbsba(imap.components.empty
Empty
p1630
(dp1631
g29
I00
sg30
g122
sg32
(imap.components.point
Point
p1632
(dp1633
g35
I18
sg36
I19
sbsba(imap.components.empty
Empty
p1634
(dp1635
g29
I00
sg30
g122
sg32
(imap.components.point
Point
p1636
(dp1637
g35
I18
sg36
I20
sbsba(imap.components.wall
Wall
p1638
(dp1639
g29
I00
sg30
g41
sg32
(imap.components.point
Point
p1640
(dp1641
g35
I19
sg36
I0
sbsba(imap.components.floor
Floor
p1642
(dp1643
g29
I01
sg30
g122
sg32
(imap.components.point
Point
p1644
(dp1645
g35
I19
sg36
I1
sbsba(imap.components.floor
Floor
p1646
(dp1647
g29
I01
sg30
g122
sg32
(imap.components.point
Point
p1648
(dp1649
g35
I19
sg36
I2
sbsba(imap.components.floor
Floor
p1650
(dp1651
g29
I01
sg30
g122
sg32
(imap.components.point
Point
p1652
(dp1653
g35
I19
sg36
I3
sbsba(imap.components.wall
Wall
p1654
(dp1655
g29
I00
sg30
g41
sg32
(imap.components.point
Point
p1656
(dp1657
g35
I19
sg36
I4
sbsba(imap.components.door
Door
p1658
(dp1659
g29
I01
sg30
g171
sg32
(imap.components.point
Point
p1660
(dp1661
g35
I19
sg36
I5
sbsba(imap.components.wall
Wall
p1662
(dp1663
g29
I00
sg30
g41
sg32
(imap.components.point
Point
p1664
(dp1665
g35
I19
sg36
I6
sbsba(imap.components.wall
Wall
p1666
(dp1667
g29
I00
sg30
g41
sg32
(imap.components.point
Point
p1668
(dp1669
g35
I19
sg36
I7
sbsba(imap.components.wall
Wall
p1670
(dp1671
g29
I00
sg30
g41
sg32
(imap.components.point
Point
p1672
(dp1673
g35
I19
sg36
I8
sbsba(imap.components.wall
Wall
p1674
(dp1675
g29
I00
sg30
g41
sg32
(imap.components.point
Point
p1676
(dp1677
g35
I19
sg36
I9
sbsba(imap.components.door
Door
p1678
(dp1679
g29
I01
sg30
g171
sg32
(imap.components.point
Point
p1680
(dp1681
g35
I19
sg36
I10
sbsba(imap.components.wall
Wall
p1682
(dp1683
g29
I00
sg30
g41
sg32
(imap.components.point
Point
p1684
(dp1685
g35
I19
sg36
I11
sbsba(imap.components.floor
Floor
p1686
(dp1687
g29
I01
sg30
g122
sg32
(imap.components.point
Point
p1688
(dp1689
g35
I19
sg36
I12
sbsba(imap.components.wall
Wall
p1690
(dp1691
g29
I00
sg30
g41
sg32
(imap.components.point
Point
p1692
(dp1693
g35
I19
sg36
I13
sbsba(imap.components.empty
Empty
p1694
(dp1695
g29
I00
sg30
g122
sg32
(imap.components.point
Point
p1696
(dp1697
g35
I19
sg36
I14
sbsba(imap.components.empty
Empty
p1698
(dp1699
g29
I00
sg30
g122
sg32
(imap.components.point
Point
p1700
(dp1701
g35
I19
sg36
I15
sbsba(imap.components.empty
Empty
p1702
(dp1703
g29
I00
sg30
g122
sg32
(imap.components.point
Point
p1704
(dp1705
g35
I19
sg36
I16
sbsba(imap.components.empty
Empty
p1706
(dp1707
g29
I00
sg30
g122
sg32
(imap.components.point
Point
p1708
(dp1709
g35
I19
sg36
I17
sbsba(imap.components.empty
Empty
p1710
(dp1711
g29
I00
sg30
g122
sg32
(imap.components.point
Point
p1712
(dp1713
g35
I19
sg36
I18
sbsba(imap.components.empty
Empty
p1714
(dp1715
g29
I00
sg30
g122
sg32
(imap.components.point
Point
p1716
(dp1717
g35
I19
sg36
I19
sbsba(imap.components.empty
Empty
p1718
(dp1719
g29
I00
sg30
g122
sg32
(imap.components.point
Point
p1720
(dp1721
g35
I19
sg36
I20
sbsba(imap.components.wall
Wall
p1722
(dp1723
g29
I00
sg30
g41
sg32
(imap.components.point
Point
p1724
(dp1725
g35
I20
sg36
I0
sbsba(imap.components.door
Door
p1726
(dp1727
g29
I01
sg30
g171
sg32
(imap.components.point
Point
p1728
(dp1729
g35
I20
sg36
I1
sbsba(imap.components.wall
Wall
p1730
(dp1731
g29
I00
sg30
g41
sg32
(imap.components.point
Point
p1732
(dp1733
g35
I20
sg36
I2
sbsba(imap.components.wall
Wall
p1734
(dp1735
g29
I00
sg30
g41
sg32
(imap.components.point
Point
p1736
(dp1737
g35
I20
sg36
I3
sbsba(imap.components.wall
Wall
p1738
(dp1739
g29
I00
sg30
g41
sg32
(imap.components.point
Point
p1740
(dp1741
g35
I20
sg36
I4
sbsba(imap.components.floor
Floor
p1742
(dp1743
g29
I01
sg30
g122
sg32
(imap.components.point
Point
p1744
(dp1745
g35
I20
sg36
I5
sbsba(imap.components.floor
Floor
p1746
(dp1747
g29
I01
sg30
g122
sg32
(imap.components.point
Point
p1748
(dp1749
g35
I20
sg36
I6
sbsba(imap.components.floor
Floor
p1750
(dp1751
g29
I01
sg30
g122
sg32
(imap.components.point
Point
p1752
(dp1753
g35
I20
sg36
I7
sbsba(imap.components.floor
Floor
p1754
(dp1755
g29
I01
sg30
g122
sg32
(imap.components.point
Point
p1756
(dp1757
g35
I20
sg36
I8
sbsba(imap.components.floor
Floor
p1758
(dp1759
g29
I01
sg30
g122
sg32
(imap.components.point
Point
p1760
(dp1761
g35
I20
sg36
I9
sbsba(imap.components.floor
Floor
p1762
(dp1763
g29
I01
sg30
g122
sg32
(imap.components.point
Point
p1764
(dp1765
g35
I20
sg36
I10
sbsba(imap.components.wall
Wall
p1766
(dp1767
g29
I00
sg30
g41
sg32
(imap.components.point
Point
p1768
(dp1769
g35
I20
sg36
I11
sbsba(imap.components.floor
Floor
p1770
(dp1771
g29
I01
sg30
g122
sg32
(imap.components.point
Point
p1772
(dp1773
g35
I20
sg36
I12
sbsba(imap.components.wall
Wall
p1774
(dp1775
g29
I00
sg30
g41
sg32
(imap.components.point
Point
p1776
(dp1777
g35
I20
sg36
I13
sbsba(imap.components.empty
Empty
p1778
(dp1779
g29
I00
sg30
g122
sg32
(imap.components.point
Point
p1780
(dp1781
g35
I20
sg36
I14
sbsba(imap.components.empty
Empty
p1782
(dp1783
g29
I00
sg30
g122
sg32
(imap.components.point
Point
p1784
(dp1785
g35
I20
sg36
I15
sbsba(imap.components.empty
Empty
p1786
(dp1787
g29
I00
sg30
g122
sg32
(imap.components.point
Point
p1788
(dp1789
g35
I20
sg36
I16
sbsba(imap.components.empty
Empty
p1790
(dp1791
g29
I00
sg30
g122
sg32
(imap.components.point
Point
p1792
(dp1793
g35
I20
sg36
I17
sbsba(imap.components.empty
Empty
p1794
(dp1795
g29
I00
sg30
g122
sg32
(imap.components.point
Point
p1796
(dp1797
g35
I20
sg36
I18
sbsba(imap.components.empty
Empty
p1798
(dp1799
g29
I00
sg30
g122
sg32
(imap.components.point
Point
p1800
(dp1801
g35
I20
sg36
I19
sbsba(imap.components.empty
Empty
p1802
(dp1803
g29
I00
sg30
g122
sg32
(imap.components.point
Point
p1804
(dp1805
g35
I20
sg36
I20
sbsba(imap.components.wall
Wall
p1806
(dp1807
g29
I00
sg30
g41
sg32
(imap.components.point
Point
p1808
(dp1809
g35
I21
sg36
I0
sbsba(imap.components.floor
Floor
p1810
(dp1811
g29
I01
sg30
g122
sg32
(imap.components.point
Point
p1812
(dp1813
g35
I21
sg36
I1
sbsba(imap.components.floor
Floor
p1814
(dp1815
g29
I01
sg30
g122
sg32
(imap.components.point
Point
p1816
(dp1817
g35
I21
sg36
I2
sbsba(imap.components.floor
Floor
p1818
(dp1819
g29
I01
sg30
g122
sg32
(imap.components.point
Point
p1820
(dp1821
g35
I21
sg36
I3
sbsba(imap.components.wall
Wall
p1822
(dp1823
g29
I00
sg30
g41
sg32
(imap.components.point
Point
p1824
(dp1825
g35
I21
sg36
I4
sbsba(imap.components.wall
Wall
p1826
(dp1827
g29
I00
sg30
g41
sg32
(imap.components.point
Point
p1828
(dp1829
g35
I21
sg36
I5
sbsba(imap.components.wall
Wall
p1830
(dp1831
g29
I00
sg30
g41
sg32
(imap.components.point
Point
p1832
(dp1833
g35
I21
sg36
I6
sbsba(imap.components.wall
Wall
p1834
(dp1835
g29
I00
sg30
g41
sg32
(imap.components.point
Point
p1836
(dp1837
g35
I21
sg36
I7
sbsba(imap.components.wall
Wall
p1838
(dp1839
g29
I00
sg30
g41
sg32
(imap.components.point
Point
p1840
(dp1841
g35
I21
sg36
I8
sbsba(imap.components.wall
Wall
p1842
(dp1843
g29
I00
sg30
g41
sg32
(imap.components.point
Point
p1844
(dp1845
g35
I21
sg36
I9
sbsba(imap.components.wall
Wall
p1846
(dp1847
g29
I00
sg30
g41
sg32
(imap.components.point
Point
p1848
(dp1849
g35
I21
sg36
I10
sbsba(imap.components.wall
Wall
p1850
(dp1851
g29
I00
sg30
g41
sg32
(imap.components.point
Point
p1852
(dp1853
g35
I21
sg36
I11
sbsba(imap.components.floor
Floor
p1854
(dp1855
g29
I01
sg30
g122
sg32
(imap.components.point
Point
p1856
(dp1857
g35
I21
sg36
I12
sbsba(imap.components.wall
Wall
p1858
(dp1859
g29
I00
sg30
g41
sg32
(imap.components.point
Point
p1860
(dp1861
g35
I21
sg36
I13
sbsba(imap.components.wall
Wall
p1862
(dp1863
g29
I00
sg30
g41
sg32
(imap.components.point
Point
p1864
(dp1865
g35
I21
sg36
I14
sbsba(imap.components.wall
Wall
p1866
(dp1867
g29
I00
sg30
g41
sg32
(imap.components.point
Point
p1868
(dp1869
g35
I21
sg36
I15
sbsba(imap.components.wall
Wall
p1870
(dp1871
g29
I00
sg30
g41
sg32
(imap.components.point
Point
p1872
(dp1873
g35
I21
sg36
I16
sbsba(imap.components.wall
Wall
p1874
(dp1875
g29
I00
sg30
g41
sg32
(imap.components.point
Point
p1876
(dp1877
g35
I21
sg36
I17
sbsba(imap.components.wall
Wall
p1878
(dp1879
g29
I00
sg30
g41
sg32
(imap.components.point
Point
p1880
(dp1881
g35
I21
sg36
I18
sbsba(imap.components.door
Door
p1882
(dp1883
g29
I01
sg30
g171
sg32
(imap.components.point
Point
p1884
(dp1885
g35
I21
sg36
I19
sbsba(imap.components.wall
Wall
p1886
(dp1887
g29
I00
sg30
g41
sg32
(imap.components.point
Point
p1888
(dp1889
g35
I21
sg36
I20
sbsba(imap.components.wall
Wall
p1890
(dp1891
g29
I00
sg30
g41
sg32
(imap.components.point
Point
p1892
(dp1893
g35
I22
sg36
I0
sbsba(imap.components.floor
Floor
p1894
(dp1895
g29
I01
sg30
g122
sg32
(imap.components.point
Point
p1896
(dp1897
g35
I22
sg36
I1
sbsba(imap.components.floor
Floor
p1898
(dp1899
g29
I01
sg30
g122
sg32
(imap.components.point
Point
p1900
(dp1901
g35
I22
sg36
I2
sbsba(imap.components.floor
Floor
p1902
(dp1903
g29
I01
sg30
g122
sg32
(imap.components.point
Point
p1904
(dp1905
g35
I22
sg36
I3
sbsba(imap.components.floor
Floor
p1906
(dp1907
g29
I01
sg30
g122
sg32
(imap.components.point
Point
p1908
(dp1909
g35
I22
sg36
I4
sbsba(imap.components.floor
Floor
p1910
(dp1911
g29
I01
sg30
g122
sg32
(imap.components.point
Point
p1912
(dp1913
g35
I22
sg36
I5
sbsba(imap.components.floor
Floor
p1914
(dp1915
g29
I01
sg30
g122
sg32
(imap.components.point
Point
p1916
(dp1917
g35
I22
sg36
I6
sbsba(imap.components.floor
Floor
p1918
(dp1919
g29
I01
sg30
g122
sg32
(imap.components.point
Point
p1920
(dp1921
g35
I22
sg36
I7
sbsba(imap.components.floor
Floor
p1922
(dp1923
g29
I01
sg30
g122
sg32
(imap.components.point
Point
p1924
(dp1925
g35
I22
sg36
I8
sbsba(imap.components.floor
Floor
p1926
(dp1927
g29
I01
sg30
g122
sg32
(imap.components.point
Point
p1928
(dp1929
g35
I22
sg36
I9
sbsba(imap.components.floor
Floor
p1930
(dp1931
g29
I01
sg30
g122
sg32
(imap.components.point
Point
p1932
(dp1933
g35
I22
sg36
I10
sbsba(imap.components.wall
Wall
p1934
(dp1935
g29
I00
sg30
g41
sg32
(imap.components.point
Point
p1936
(dp1937
g35
I22
sg36
I11
sbsba(imap.components.floor
Floor
p1938
(dp1939
g29
I01
sg30
g122
sg32
(imap.components.point
Point
p1940
(dp1941
g35
I22
sg36
I12
sbsba(imap.components.floor
Floor
p1942
(dp1943
g29
I01
sg30
g122
sg32
(imap.components.point
Point
p1944
(dp1945
g35
I22
sg36
I13
sbsba(imap.components.floor
Floor
p1946
(dp1947
g29
I01
sg30
g122
sg32
(imap.components.point
Point
p1948
(dp1949
g35
I22
sg36
I14
sbsba(imap.components.floor
Floor
p1950
(dp1951
g29
I01
sg30
g122
sg32
(imap.components.point
Point
p1952
(dp1953
g35
I22
sg36
I15
sbsba(imap.components.floor
Floor
p1954
(dp1955
g29
I01
sg30
g122
sg32
(imap.components.point
Point
p1956
(dp1957
g35
I22
sg36
I16
sbsba(imap.components.floor
Floor
p1958
(dp1959
g29
I01
sg30
g122
sg32
(imap.components.point
Point
p1960
(dp1961
g35
I22
sg36
I17
sbsba(imap.components.floor
Floor
p1962
(dp1963
g29
I01
sg30
g122
sg32
(imap.components.point
Point
p1964
(dp1965
g35
I22
sg36
I18
sbsba(imap.components.floor
Floor
p1966
(dp1967
g29
I01
sg30
g122
sg32
(imap.components.point
Point
p1968
(dp1969
g35
I22
sg36
I19
sbsba(imap.components.wall
Wall
p1970
(dp1971
g29
I00
sg30
g41
sg32
(imap.components.point
Point
p1972
(dp1973
g35
I22
sg36
I20
sbsba(imap.components.wall
Wall
p1974
(dp1975
g29
I00
sg30
g41
sg32
(imap.components.point
Point
p1976
(dp1977
g35
I23
sg36
I0
sbsba(imap.components.wall
Wall
p1978
(dp1979
g29
I00
sg30
g41
sg32
(imap.components.point
Point
p1980
(dp1981
g35
I23
sg36
I1
sbsba(imap.components.wall
Wall
p1982
(dp1983
g29
I00
sg30
g41
sg32
(imap.components.point
Point
p1984
(dp1985
g35
I23
sg36
I2
sbsba(imap.components.wall
Wall
p1986
(dp1987
g29
I00
sg30
g41
sg32
(imap.components.point
Point
p1988
(dp1989
g35
I23
sg36
I3
sbsba(imap.components.wall
Wall
p1990
(dp1991
g29
I00
sg30
g41
sg32
(imap.components.point
Point
p1992
(dp1993
g35
I23
sg36
I4
sbsba(imap.components.wall
Wall
p1994
(dp1995
g29
I00
sg30
g41
sg32
(imap.components.point
Point
p1996
(dp1997
g35
I23
sg36
I5
sbsba(imap.components.wall
Wall
p1998
(dp1999
g29
I00
sg30
g41
sg32
(imap.components.point
Point
p2000
(dp2001
g35
I23
sg36
I6
sbsba(imap.components.wall
Wall
p2002
(dp2003
g29
I00
sg30
g41
sg32
(imap.components.point
Point
p2004
(dp2005
g35
I23
sg36
I7
sbsba(imap.components.wall
Wall
p2006
(dp2007
g29
I00
sg30
g41
sg32
(imap.components.point
Point
p2008
(dp2009
g35
I23
sg36
I8
sbsba(imap.components.wall
Wall
p2010
(dp2011
g29
I00
sg30
g41
sg32
(imap.components.point
Point
p2012
(dp2013
g35
I23
sg36
I9
sbsba(imap.components.wall
Wall
p2014
(dp2015
g29
I00
sg30
g41
sg32
(imap.components.point
Point
p2016
(dp2017
g35
I23
sg36
I10
sbsba(imap.components.wall
Wall
p2018
(dp2019
g29
I00
sg30
g41
sg32
(imap.components.point
Point
p2020
(dp2021
g35
I23
sg36
I11
sbsba(imap.components.wall
Wall
p2022
(dp2023
g29
I00
sg30
g41
sg32
(imap.components.point
Point
p2024
(dp2025
g35
I23
sg36
I12
sbsba(imap.components.wall
Wall
p2026
(dp2027
g29
I00
sg30
g41
sg32
(imap.components.point
Point
p2028
(dp2029
g35
I23
sg36
I13
sbsba(imap.components.wall
Wall
p2030
(dp2031
g29
I00
sg30
g41
sg32
(imap.components.point
Point
p2032
(dp2033
g35
I23
sg36
I14
sbsba(imap.components.wall
Wall
p2034
(dp2035
g29
I00
sg30
g41
sg32
(imap.components.point
Point
p2036
(dp2037
g35
I23
sg36
I15
sbsba(imap.components.wall
Wall
p2038
(dp2039
g29
I00
sg30
g41
sg32
(imap.components.point
Point
p2040
(dp2041
g35
I23
sg36
I16
sbsba(imap.components.wall
Wall
p2042
(dp2043
g29
I00
sg30
g41
sg32
(imap.components.point
Point
p2044
(dp2045
g35
I23
sg36
I17
sbsba(imap.components.wall
Wall
p2046
(dp2047
g29
I00
sg30
g41
sg32
(imap.components.point
Point
p2048
(dp2049
g35
I23
sg36
I18
sbsba(imap.components.wall
Wall
p2050
(dp2051
g29
I00
sg30
g41
sg32
(imap.components.point
Point
p2052
(dp2053
g35
I23
sg36
I19
sbsba(imap.components.wall
Wall
p2054
(dp2055
g29
I00
sg30
g41
sg32
(imap.components.point
Point
p2056
(dp2057
g35
I23
sg36
I20
sbsbasbsS'_status'
p2058
I0
sg37
(igame_map
GameMap
p2059
(dp2060
g26
(imap.components.robot
Robot
p2061
(dp2062
g29
I00
sg30
g31
sg32
g33
sbsg37
(lp2063
g39
ag44
ag48
ag52
ag56
ag60
ag64
ag68
ag72
ag76
ag80
ag84
ag88
ag92
ag96
ag100
ag104
ag108
ag112
ag116
a(imap.components.wall
Wall
p2064
(dp2065
g29
I00
sg30
g41
sg32
(imap.components.point
Point
p2066
(dp2067
g35
I0
sg36
I20
sbsba(imap.components.wall
Wall
p2068
(dp2069
g29
I00
sg30
g41
sg32
(imap.components.point
Point
p2070
(dp2071
g35
I0
sg36
I21
sbsba(imap.components.wall
Wall
p2072
(dp2073
g29
I00
sg30
g41
sg32
(imap.components.point
Point
p2074
(dp2075
g35
I0
sg36
I22
sbsba(imap.components.wall
Wall
p2076
(dp2077
g29
I00
sg30
g41
sg32
(imap.components.point
Point
p2078
(dp2079
g35
I0
sg36
I23
sbsba(imap.components.wall
Wall
p2080
(dp2081
g29
I00
sg30
g41
sg32
(imap.components.point
Point
p2082
(dp2083
g35
I0
sg36
I24
sbsba(imap.components.wall
Wall
p2084
(dp2085
g29
I00
sg30
g41
sg32
(imap.components.point
Point
p2086
(dp2087
g35
I0
sg36
I25
sbsba(imap.components.wall
Wall
p2088
(dp2089
g29
I00
sg30
g41
sg32
(imap.components.point
Point
p2090
(dp2091
g35
I0
sg36
I26
sbsba(imap.components.wall
Wall
p2092
(dp2093
g29
I00
sg30
g41
sg32
(imap.components.point
Point
p2094
(dp2095
g35
I0
sg36
I27
sbsba(imap.components.wall
Wall
p2096
(dp2097
g29
I00
sg30
g41
sg32
(imap.components.point
Point
p2098
(dp2099
g35
I0
sg36
I28
sbsba(imap.components.wall
Wall
p2100
(dp2101
g29
I00
sg30
g41
sg32
(imap.components.point
Point
p2102
(dp2103
g35
I0
sg36
I29
sbsba(imap.components.wall
Wall
p2104
(dp2105
g29
I00
sg30
g41
sg32
(imap.components.point
Point
p2106
(dp2107
g35
I0
sg36
I30
sbsba(imap.components.wall
Wall
p2108
(dp2109
g29
I00
sg30
g41
sg32
(imap.components.point
Point
p2110
(dp2111
g35
I0
sg36
I31
sbsba(imap.components.wall
Wall
p2112
(dp2113
g29
I00
sg30
g41
sg32
(imap.components.point
Point
p2114
(dp2115
g35
I0
sg36
I32
sbsba(imap.components.wall
Wall
p2116
(dp2117
g29
I00
sg30
g41
sg32
(imap.components.point
Point
p2118
(dp2119
g35
I0
sg36
I33
sbsba(imap.components.wall
Wall
p2120
(dp2121
g29
I00
sg30
g41
sg32
(imap.components.point
Point
p2122
(dp2123
g35
I0
sg36
I34
sbsba(imap.components.wall
Wall
p2124
(dp2125
g29
I00
sg30
g41
sg32
(imap.components.point
Point
p2126
(dp2127
g35
I0
sg36
I35
sbsba(imap.components.wall
Wall
p2128
(dp2129
g29
I00
sg30
g41
sg32
(imap.components.point
Point
p2130
(dp2131
g35
I0
sg36
I36
sbsba(imap.components.wall
Wall
p2132
(dp2133
g29
I00
sg30
g41
sg32
(imap.components.point
Point
p2134
(dp2135
g35
I0
sg36
I37
sbsba(imap.components.wall
Wall
p2136
(dp2137
g29
I00
sg30
g41
sg32
(imap.components.point
Point
p2138
(dp2139
g35
I0
sg36
I38
sbsba(imap.components.wall
Wall
p2140
(dp2141
g29
I00
sg30
g41
sg32
(imap.components.point
Point
p2142
(dp2143
g35
I0
sg36
I39
sbsba(imap.components.wall
Wall
p2144
(dp2145
g29
I00
sg30
g41
sg32
(imap.components.point
Point
p2146
(dp2147
g35
I0
sg36
I40
sbsbag125
ag129
ag133
ag137
ag141
ag145
ag149
ag153
ag157
ag161
ag165
ag169
ag174
ag178
ag182
ag186
ag190
ag194
ag198
ag202
a(imap.components.floor
Floor
p2148
(dp2149
g29
I01
sg30
g122
sg32
(imap.components.point
Point
p2150
(dp2151
g35
I1
sg36
I20
sbsba(imap.components.floor
Floor
p2152
(dp2153
g29
I01
sg30
g122
sg32
(imap.components.point
Point
p2154
(dp2155
g35
I1
sg36
I21
sbsba(imap.components.floor
Floor
p2156
(dp2157
g29
I01
sg30
g122
sg32
(imap.components.point
Point
p2158
(dp2159
g35
I1
sg36
I22
sbsba(imap.components.floor
Floor
p2160
(dp2161
g29
I01
sg30
g122
sg32
(imap.components.point
Point
p2162
(dp2163
g35
I1
sg36
I23
sbsba(imap.components.floor
Floor
p2164
(dp2165
g29
I01
sg30
g122
sg32
(imap.components.point
Point
p2166
(dp2167
g35
I1
sg36
I24
sbsba(imap.components.floor
Floor
p2168
(dp2169
g29
I01
sg30
g122
sg32
(imap.components.point
Point
p2170
(dp2171
g35
I1
sg36
I25
sbsba(imap.components.floor
Floor
p2172
(dp2173
g29
I01
sg30
g122
sg32
(imap.components.point
Point
p2174
(dp2175
g35
I1
sg36
I26
sbsba(imap.components.floor
Floor
p2176
(dp2177
g29
I01
sg30
g122
sg32
(imap.components.point
Point
p2178
(dp2179
g35
I1
sg36
I27
sbsba(imap.components.floor
Floor
p2180
(dp2181
g29
I01
sg30
g122
sg32
(imap.components.point
Point
p2182
(dp2183
g35
I1
sg36
I28
sbsba(imap.components.door
Door
p2184
(dp2185
g29
I01
sg30
g171
sg32
(imap.components.point
Point
p2186
(dp2187
g35
I1
sg36
I29
sbsba(imap.components.floor
Floor
p2188
(dp2189
g29
I01
sg30
g122
sg32
(imap.components.point
Point
p2190
(dp2191
g35
I1
sg36
I30
sbsba(imap.components.floor
Floor
p2192
(dp2193
g29
I01
sg30
g122
sg32
(imap.components.point
Point
p2194
(dp2195
g35
I1
sg36
I31
sbsba(imap.components.floor
Floor
p2196
(dp2197
g29
I01
sg30
g122
sg32
(imap.components.point
Point
p2198
(dp2199
g35
I1
sg36
I32
sbsba(imap.components.floor
Floor
p2200
(dp2201
g29
I01
sg30
g122
sg32
(imap.components.point
Point
p2202
(dp2203
g35
I1
sg36
I33
sbsba(imap.components.floor
Floor
p2204
(dp2205
g29
I01
sg30
g122
sg32
(imap.components.point
Point
p2206
(dp2207
g35
I1
sg36
I34
sbsba(imap.components.floor
Floor
p2208
(dp2209
g29
I01
sg30
g122
sg32
(imap.components.point
Point
p2210
(dp2211
g35
I1
sg36
I35
sbsba(imap.components.floor
Floor
p2212
(dp2213
g29
I01
sg30
g122
sg32
(imap.components.point
Point
p2214
(dp2215
g35
I1
sg36
I36
sbsba(imap.components.floor
Floor
p2216
(dp2217
g29
I01
sg30
g122
sg32
(imap.components.point
Point
p2218
(dp2219
g35
I1
sg36
I37
sbsba(imap.components.door
Door
p2220
(dp2221
g29
I01
sg30
g171
sg32
(imap.components.point
Point
p2222
(dp2223
g35
I1
sg36
I38
sbsba(imap.components.floor
Floor
p2224
(dp2225
g29
I01
sg30
g122
sg32
(imap.components.point
Point
p2226
(dp2227
g35
I1
sg36
I39
sbsba(imap.components.wall
Wall
p2228
(dp2229
g29
I00
sg30
g41
sg32
(imap.components.point
Point
p2230
(dp2231
g35
I1
sg36
I40
sbsbag210
ag214
ag218
ag222
ag226
ag230
ag234
ag238
ag242
ag246
ag250
ag254
ag258
ag262
ag266
ag270
ag274
ag278
ag282
ag286
a(imap.components.door
Door
p2232
(dp2233
g29
I01
sg30
g171
sg32
(imap.components.point
Point
p2234
(dp2235
g35
I2
sg36
I20
sbsba(imap.components.wall
Wall
p2236
(dp2237
g29
I00
sg30
g41
sg32
(imap.components.point
Point
p2238
(dp2239
g35
I2
sg36
I21
sbsba(imap.components.wall
Wall
p2240
(dp2241
g29
I00
sg30
g41
sg32
(imap.components.point
Point
p2242
(dp2243
g35
I2
sg36
I22
sbsba(imap.components.wall
Wall
p2244
(dp2245
g29
I00
sg30
g41
sg32
(imap.components.point
Point
p2246
(dp2247
g35
I2
sg36
I23
sbsba(imap.components.wall
Wall
p2248
(dp2249
g29
I00
sg30
g41
sg32
(imap.components.point
Point
p2250
(dp2251
g35
I2
sg36
I24
sbsba(imap.components.floor
Floor
p2252
(dp2253
g29
I01
sg30
g122
sg32
(imap.components.point
Point
p2254
(dp2255
g35
I2
sg36
I25
sbsba(imap.components.floor
Floor
p2256
(dp2257
g29
I01
sg30
g122
sg32
(imap.components.point
Point
p2258
(dp2259
g35
I2
sg36
I26
sbsba(imap.components.floor
Floor
p2260
(dp2261
g29
I01
sg30
g122
sg32
(imap.components.point
Point
p2262
(dp2263
g35
I2
sg36
I27
sbsba(imap.components.floor
Floor
p2264
(dp2265
g29
I01
sg30
g122
sg32
(imap.components.point
Point
p2266
(dp2267
g35
I2
sg36
I28
sbsba(imap.components.wall
Wall
p2268
(dp2269
g29
I00
sg30
g41
sg32
(imap.components.point
Point
p2270
(dp2271
g35
I2
sg36
I29
sbsba(imap.components.floor
Floor
p2272
(dp2273
g29
I01
sg30
g122
sg32
(imap.components.point
Point
p2274
(dp2275
g35
I2
sg36
I30
sbsba(imap.components.wall
Wall
p2276
(dp2277
g29
I00
sg30
g41
sg32
(imap.components.point
Point
p2278
(dp2279
g35
I2
sg36
I31
sbsba(imap.components.wall
Wall
p2280
(dp2281
g29
I00
sg30
g41
sg32
(imap.components.point
Point
p2282
(dp2283
g35
I2
sg36
I32
sbsba(imap.components.wall
Wall
p2284
(dp2285
g29
I00
sg30
g41
sg32
(imap.components.point
Point
p2286
(dp2287
g35
I2
sg36
I33
sbsba(imap.components.wall
Wall
p2288
(dp2289
g29
I00
sg30
g41
sg32
(imap.components.point
Point
p2290
(dp2291
g35
I2
sg36
I34
sbsba(imap.components.wall
Wall
p2292
(dp2293
g29
I00
sg30
g41
sg32
(imap.components.point
Point
p2294
(dp2295
g35
I2
sg36
I35
sbsba(imap.components.wall
Wall
p2296
(dp2297
g29
I00
sg30
g41
sg32
(imap.components.point
Point
p2298
(dp2299
g35
I2
sg36
I36
sbsba(imap.components.door
Door
p2300
(dp2301
g29
I01
sg30
g171
sg32
(imap.components.point
Point
p2302
(dp2303
g35
I2
sg36
I37
sbsba(imap.components.wall
Wall
p2304
(dp2305
g29
I00
sg30
g41
sg32
(imap.components.point
Point
p2306
(dp2307
g35
I2
sg36
I38
sbsba(imap.components.floor
Floor
p2308
(dp2309
g29
I01
sg30
g122
sg32
(imap.components.point
Point
p2310
(dp2311
g35
I2
sg36
I39
sbsba(imap.components.wall
Wall
p2312
(dp2313
g29
I00
sg30
g41
sg32
(imap.components.point
Point
p2314
(dp2315
g35
I2
sg36
I40
sbsba(imap.components.wall
Wall
p2316
(dp2317
g29
I00
sg30
g41
sg32
(imap.components.point
Point
p2318
(dp2319
g35
I3
sg36
I0
sbsba(imap.components.floor
Floor
p2320
(dp2321
g29
I01
sg30
g122
sg32
(imap.components.point
Point
p2322
(dp2323
g35
I3
sg36
I1
sbsba(imap.components.floor
Floor
p2324
(dp2325
g29
I01
sg30
g122
sg32
(imap.components.point
Point
p2326
(dp2327
g35
I3
sg36
I2
sbsba(imap.components.floor
Floor
p2328
(dp2329
g29
I01
sg30
g122
sg32
(imap.components.point
Point
p2330
(dp2331
g35
I3
sg36
I3
sbsbag310
ag314
ag318
ag322
ag326
ag330
ag334
ag338
ag342
ag346
ag350
ag354
ag358
ag362
ag366
ag370
a(imap.components.floor
Floor
p2332
(dp2333
g29
I01
sg30
g122
sg32
(imap.components.point
Point
p2334
(dp2335
g35
I3
sg36
I20
sbsba(imap.components.floor
Floor
p2336
(dp2337
g29
I01
sg30
g122
sg32
(imap.components.point
Point
p2338
(dp2339
g35
I3
sg36
I21
sbsba(imap.components.floor
Floor
p2340
(dp2341
g29
I01
sg30
g122
sg32
(imap.components.point
Point
p2342
(dp2343
g35
I3
sg36
I22
sbsba(imap.components.floor
Floor
p2344
(dp2345
g29
I01
sg30
g122
sg32
(imap.components.point
Point
p2346
(dp2347
g35
I3
sg36
I23
sbsba(imap.components.wall
Wall
p2348
(dp2349
g29
I00
sg30
g41
sg32
(imap.components.point
Point
p2350
(dp2351
g35
I3
sg36
I24
sbsba(imap.components.wall
Wall
p2352
(dp2353
g29
I00
sg30
g41
sg32
(imap.components.point
Point
p2354
(dp2355
g35
I3
sg36
I25
sbsba(imap.components.wall
Wall
p2356
(dp2357
g29
I00
sg30
g41
sg32
(imap.components.point
Point
p2358
(dp2359
g35
I3
sg36
I26
sbsba(imap.components.wall
Wall
p2360
(dp2361
g29
I00
sg30
g41
sg32
(imap.components.point
Point
p2362
(dp2363
g35
I3
sg36
I27
sbsba(imap.components.door
Door
p2364
(dp2365
g29
I01
sg30
g171
sg32
(imap.components.point
Point
p2366
(dp2367
g35
I3
sg36
I28
sbsba(imap.components.wall
Wall
p2368
(dp2369
g29
I00
sg30
g41
sg32
(imap.components.point
Point
p2370
(dp2371
g35
I3
sg36
I29
sbsba(imap.components.wall
Wall
p2372
(dp2373
g29
I00
sg30
g41
sg32
(imap.components.point
Point
p2374
(dp2375
g35
I3
sg36
I30
sbsba(imap.components.wall
Wall
p2376
(dp2377
g29
I00
sg30
g41
sg32
(imap.components.point
Point
p2378
(dp2379
g35
I3
sg36
I31
sbsba(imap.components.floor
Floor
p2380
(dp2381
g29
I01
sg30
g122
sg32
(imap.components.point
Point
p2382
(dp2383
g35
I3
sg36
I32
sbsba(imap.components.floor
Floor
p2384
(dp2385
g29
I01
sg30
g122
sg32
(imap.components.point
Point
p2386
(dp2387
g35
I3
sg36
I33
sbsba(imap.components.floor
Floor
p2388
(dp2389
g29
I01
sg30
g122
sg32
(imap.components.point
Point
p2390
(dp2391
g35
I3
sg36
I34
sbsba(imap.components.floor
Floor
p2392
(dp2393
g29
I01
sg30
g122
sg32
(imap.components.point
Point
p2394
(dp2395
g35
I3
sg36
I35
sbsba(imap.components.door
Door
p2396
(dp2397
g29
I01
sg30
g171
sg32
(imap.components.point
Point
p2398
(dp2399
g35
I3
sg36
I36
sbsba(imap.components.floor
Floor
p2400
(dp2401
g29
I01
sg30
g122
sg32
(imap.components.point
Point
p2402
(dp2403
g35
I3
sg36
I37
sbsba(imap.components.wall
Wall
p2404
(dp2405
g29
I00
sg30
g41
sg32
(imap.components.point
Point
p2406
(dp2407
g35
I3
sg36
I38
sbsba(imap.components.floor
Floor
p2408
(dp2409
g29
I01
sg30
g122
sg32
(imap.components.point
Point
p2410
(dp2411
g35
I3
sg36
I39
sbsba(imap.components.wall
Wall
p2412
(dp2413
g29
I00
sg30
g41
sg32
(imap.components.point
Point
p2414
(dp2415
g35
I3
sg36
I40
sbsba(imap.components.wall
Wall
p2416
(dp2417
g29
I00
sg30
g41
sg32
(imap.components.point
Point
p2418
(dp2419
g35
I4
sg36
I0
sbsba(imap.components.floor
Floor
p2420
(dp2421
g29
I01
sg30
g122
sg32
(imap.components.point
Point
p2422
(dp2423
g35
I4
sg36
I1
sbsba(imap.components.wall
Wall
p2424
(dp2425
g29
I00
sg30
g41
sg32
(imap.components.point
Point
p2426
(dp2427
g35
I4
sg36
I2
sbsba(imap.components.floor
Floor
p2428
(dp2429
g29
I01
sg30
g122
sg32
(imap.components.point
Point
p2430
(dp2431
g35
I4
sg36
I3
sbsbag394
ag398
ag402
ag406
ag410
ag414
ag418
ag422
ag426
ag430
ag434
ag438
ag442
ag446
ag450
ag454
a(imap.components.wall
Wall
p2432
(dp2433
g29
I00
sg30
g41
sg32
(imap.components.point
Point
p2434
(dp2435
g35
I4
sg36
I20
sbsba(imap.components.wall
Wall
p2436
(dp2437
g29
I00
sg30
g41
sg32
(imap.components.point
Point
p2438
(dp2439
g35
I4
sg36
I21
sbsba(imap.components.wall
Wall
p2440
(dp2441
g29
I00
sg30
g41
sg32
(imap.components.point
Point
p2442
(dp2443
g35
I4
sg36
I22
sbsba(imap.components.floor
Floor
p2444
(dp2445
g29
I01
sg30
g122
sg32
(imap.components.point
Point
p2446
(dp2447
g35
I4
sg36
I23
sbsba(imap.components.wall
Wall
p2448
(dp2449
g29
I00
sg30
g41
sg32
(imap.components.point
Point
p2450
(dp2451
g35
I4
sg36
I24
sbsba(imap.components.floor
Floor
p2452
(dp2453
g29
I01
sg30
g122
sg32
(imap.components.point
Point
p2454
(dp2455
g35
I4
sg36
I25
sbsba(imap.components.floor
Floor
p2456
(dp2457
g29
I01
sg30
g122
sg32
(imap.components.point
Point
p2458
(dp2459
g35
I4
sg36
I26
sbsba(imap.components.wall
Wall
p2460
(dp2461
g29
I00
sg30
g41
sg32
(imap.components.point
Point
p2462
(dp2463
g35
I4
sg36
I27
sbsba(imap.components.floor
Floor
p2464
(dp2465
g29
I01
sg30
g122
sg32
(imap.components.point
Point
p2466
(dp2467
g35
I4
sg36
I28
sbsba(imap.components.floor
Floor
p2468
(dp2469
g29
I01
sg30
g122
sg32
(imap.components.point
Point
p2470
(dp2471
g35
I4
sg36
I29
sbsba(imap.components.floor
Floor
p2472
(dp2473
g29
I01
sg30
g122
sg32
(imap.components.point
Point
p2474
(dp2475
g35
I4
sg36
I30
sbsba(imap.components.floor
Floor
p2476
(dp2477
g29
I01
sg30
g122
sg32
(imap.components.point
Point
p2478
(dp2479
g35
I4
sg36
I31
sbsba(imap.components.floor
Floor
p2480
(dp2481
g29
I01
sg30
g122
sg32
(imap.components.point
Point
p2482
(dp2483
g35
I4
sg36
I32
sbsba(imap.components.wall
Wall
p2484
(dp2485
g29
I00
sg30
g41
sg32
(imap.components.point
Point
p2486
(dp2487
g35
I4
sg36
I33
sbsba(imap.components.wall
Wall
p2488
(dp2489
g29
I00
sg30
g41
sg32
(imap.components.point
Point
p2490
(dp2491
g35
I4
sg36
I34
sbsba(imap.components.wall
Wall
p2492
(dp2493
g29
I00
sg30
g41
sg32
(imap.components.point
Point
p2494
(dp2495
g35
I4
sg36
I35
sbsba(imap.components.wall
Wall
p2496
(dp2497
g29
I00
sg30
g41
sg32
(imap.components.point
Point
p2498
(dp2499
g35
I4
sg36
I36
sbsba(imap.components.floor
Floor
p2500
(dp2501
g29
I01
sg30
g122
sg32
(imap.components.point
Point
p2502
(dp2503
g35
I4
sg36
I37
sbsba(imap.components.wall
Wall
p2504
(dp2505
g29
I00
sg30
g41
sg32
(imap.components.point
Point
p2506
(dp2507
g35
I4
sg36
I38
sbsba(imap.components.floor
Floor
p2508
(dp2509
g29
I01
sg30
g122
sg32
(imap.components.point
Point
p2510
(dp2511
g35
I4
sg36
I39
sbsba(imap.components.wall
Wall
p2512
(dp2513
g29
I00
sg30
g41
sg32
(imap.components.point
Point
p2514
(dp2515
g35
I4
sg36
I40
sbsba(imap.components.wall
Wall
p2516
(dp2517
g29
I00
sg30
g41
sg32
(imap.components.point
Point
p2518
(dp2519
g35
I5
sg36
I0
sbsba(imap.components.floor
Floor
p2520
(dp2521
g29
I01
sg30
g122
sg32
(imap.components.point
Point
p2522
(dp2523
g35
I5
sg36
I1
sbsba(imap.components.wall
Wall
p2524
(dp2525
g29
I00
sg30
g41
sg32
(imap.components.point
Point
p2526
(dp2527
g35
I5
sg36
I2
sbsba(imap.components.floor
Floor
p2528
(dp2529
g29
I01
sg30
g122
sg32
(imap.components.point
Point
p2530
(dp2531
g35
I5
sg36
I3
sbsbag478
ag482
ag486
ag490
ag494
ag498
ag502
ag506
ag510
ag514
ag518
ag522
ag526
ag530
ag534
ag538
a(imap.components.floor
Floor
p2532
(dp2533
g29
I01
sg30
g122
sg32
(imap.components.point
Point
p2534
(dp2535
g35
I5
sg36
I20
sbsba(imap.components.floor
Floor
p2536
(dp2537
g29
I01
sg30
g122
sg32
(imap.components.point
Point
p2538
(dp2539
g35
I5
sg36
I21
sbsba(imap.components.floor
Floor
p2540
(dp2541
g29
I01
sg30
g122
sg32
(imap.components.point
Point
p2542
(dp2543
g35
I5
sg36
I22
sbsba(imap.components.floor
Floor
p2544
(dp2545
g29
I01
sg30
g122
sg32
(imap.components.point
Point
p2546
(dp2547
g35
I5
sg36
I23
sbsba(imap.components.wall
Wall
p2548
(dp2549
g29
I00
sg30
g41
sg32
(imap.components.point
Point
p2550
(dp2551
g35
I5
sg36
I24
sbsba(imap.components.floor
Floor
p2552
(dp2553
g29
I01
sg30
g122
sg32
(imap.components.point
Point
p2554
(dp2555
g35
I5
sg36
I25
sbsba(imap.components.wall
Wall
p2556
(dp2557
g29
I00
sg30
g41
sg32
(imap.components.point
Point
p2558
(dp2559
g35
I5
sg36
I26
sbsba(imap.components.wall
Wall
p2560
(dp2561
g29
I00
sg30
g41
sg32
(imap.components.point
Point
p2562
(dp2563
g35
I5
sg36
I27
sbsba(imap.components.wall
Wall
p2564
(dp2565
g29
I00
sg30
g41
sg32
(imap.components.point
Point
p2566
(dp2567
g35
I5
sg36
I28
sbsba(imap.components.wall
Wall
p2568
(dp2569
g29
I00
sg30
g41
sg32
(imap.components.point
Point
p2570
(dp2571
g35
I5
sg36
I29
sbsba(imap.components.wall
Wall
p2572
(dp2573
g29
I00
sg30
g41
sg32
(imap.components.point
Point
p2574
(dp2575
g35
I5
sg36
I30
sbsba(imap.components.wall
Wall
p2576
(dp2577
g29
I00
sg30
g41
sg32
(imap.components.point
Point
p2578
(dp2579
g35
I5
sg36
I31
sbsba(imap.components.wall
Wall
p2580
(dp2581
g29
I00
sg30
g41
sg32
(imap.components.point
Point
p2582
(dp2583
g35
I5
sg36
I32
sbsba(imap.components.wall
Wall
p2584
(dp2585
g29
I00
sg30
g41
sg32
(imap.components.point
Point
p2586
(dp2587
g35
I5
sg36
I33
sbsba(imap.components.floor
Floor
p2588
(dp2589
g29
I01
sg30
g122
sg32
(imap.components.point
Point
p2590
(dp2591
g35
I5
sg36
I34
sbsba(imap.components.floor
Floor
p2592
(dp2593
g29
I01
sg30
g122
sg32
(imap.components.point
Point
p2594
(dp2595
g35
I5
sg36
I35
sbsba(imap.components.wall
Wall
p2596
(dp2597
g29
I00
sg30
g41
sg32
(imap.components.point
Point
p2598
(dp2599
g35
I5
sg36
I36
sbsba(imap.components.floor
Floor
p2600
(dp2601
g29
I01
sg30
g122
sg32
(imap.components.point
Point
p2602
(dp2603
g35
I5
sg36
I37
sbsba(imap.components.wall
Wall
p2604
(dp2605
g29
I00
sg30
g41
sg32
(imap.components.point
Point
p2606
(dp2607
g35
I5
sg36
I38
sbsba(imap.components.floor
Floor
p2608
(dp2609
g29
I01
sg30
g122
sg32
(imap.components.point
Point
p2610
(dp2611
g35
I5
sg36
I39
sbsba(imap.components.wall
Wall
p2612
(dp2613
g29
I00
sg30
g41
sg32
(imap.components.point
Point
p2614
(dp2615
g35
I5
sg36
I40
sbsba(imap.components.wall
Wall
p2616
(dp2617
g29
I00
sg30
g41
sg32
(imap.components.point
Point
p2618
(dp2619
g35
I6
sg36
I0
sbsba(imap.components.floor
Floor
p2620
(dp2621
g29
I01
sg30
g122
sg32
(imap.components.point
Point
p2622
(dp2623
g35
I6
sg36
I1
sbsba(imap.components.wall
Wall
p2624
(dp2625
g29
I00
sg30
g41
sg32
(imap.components.point
Point
p2626
(dp2627
g35
I6
sg36
I2
sbsbag558
ag562
ag566
ag570
ag574
ag578
ag582
ag586
ag590
ag594
ag598
ag602
ag606
ag610
ag614
ag618
ag622
a(imap.components.wall
Wall
p2628
(dp2629
g29
I00
sg30
g41
sg32
(imap.components.point
Point
p2630
(dp2631
g35
I6
sg36
I20
sbsba(imap.components.wall
Wall
p2632
(dp2633
g29
I00
sg30
g41
sg32
(imap.components.point
Point
p2634
(dp2635
g35
I6
sg36
I21
sbsba(imap.components.wall
Wall
p2636
(dp2637
g29
I00
sg30
g41
sg32
(imap.components.point
Point
p2638
(dp2639
g35
I6
sg36
I22
sbsba(imap.components.wall
Wall
p2640
(dp2641
g29
I00
sg30
g41
sg32
(imap.components.point
Point
p2642
(dp2643
g35
I6
sg36
I23
sbsba(imap.components.wall
Wall
p2644
(dp2645
g29
I00
sg30
g41
sg32
(imap.components.point
Point
p2646
(dp2647
g35
I6
sg36
I24
sbsba(imap.components.door
Door
p2648
(dp2649
g29
I01
sg30
g171
sg32
(imap.components.point
Point
p2650
(dp2651
g35
I6
sg36
I25
sbsba(imap.components.wall
Wall
p2652
(dp2653
g29
I00
sg30
g41
sg32
(imap.components.point
Point
p2654
(dp2655
g35
I6
sg36
I26
sbsba(imap.components.wall
Wall
p2656
(dp2657
g29
I00
sg30
g41
sg32
(imap.components.point
Point
p2658
(dp2659
g35
I6
sg36
I27
sbsba(imap.components.wall
Wall
p2660
(dp2661
g29
I00
sg30
g41
sg32
(imap.components.point
Point
p2662
(dp2663
g35
I6
sg36
I28
sbsba(imap.components.floor
Floor
p2664
(dp2665
g29
I01
sg30
g122
sg32
(imap.components.point
Point
p2666
(dp2667
g35
I6
sg36
I29
sbsba(imap.components.door
Door
p2668
(dp2669
g29
I01
sg30
g171
sg32
(imap.components.point
Point
p2670
(dp2671
g35
I6
sg36
I30
sbsba(imap.components.floor
Floor
p2672
(dp2673
g29
I01
sg30
g122
sg32
(imap.components.point
Point
p2674
(dp2675
g35
I6
sg36
I31
sbsba(imap.components.floor
Floor
p2676
(dp2677
g29
I01
sg30
g122
sg32
(imap.components.point
Point
p2678
(dp2679
g35
I6
sg36
I32
sbsba(imap.components.floor
Floor
p2680
(dp2681
g29
I01
sg30
g122
sg32
(imap.components.point
Point
p2682
(dp2683
g35
I6
sg36
I33
sbsba(imap.components.floor
Floor
p2684
(dp2685
g29
I01
sg30
g122
sg32
(imap.components.point
Point
p2686
(dp2687
g35
I6
sg36
I34
sbsba(imap.components.floor
Floor
p2688
(dp2689
g29
I01
sg30
g122
sg32
(imap.components.point
Point
p2690
(dp2691
g35
I6
sg36
I35
sbsba(imap.components.door
Door
p2692
(dp2693
g29
I01
sg30
g171
sg32
(imap.components.point
Point
p2694
(dp2695
g35
I6
sg36
I36
sbsba(imap.components.floor
Floor
p2696
(dp2697
g29
I01
sg30
g122
sg32
(imap.components.point
Point
p2698
(dp2699
g35
I6
sg36
I37
sbsba(imap.components.wall
Wall
p2700
(dp2701
g29
I00
sg30
g41
sg32
(imap.components.point
Point
p2702
(dp2703
g35
I6
sg36
I38
sbsba(imap.components.floor
Floor
p2704
(dp2705
g29
I01
sg30
g122
sg32
(imap.components.point
Point
p2706
(dp2707
g35
I6
sg36
I39
sbsba(imap.components.wall
Wall
p2708
(dp2709
g29
I00
sg30
g41
sg32
(imap.components.point
Point
p2710
(dp2711
g35
I6
sg36
I40
sbsba(imap.components.wall
Wall
p2712
(dp2713
g29
I00
sg30
g41
sg32
(imap.components.point
Point
p2714
(dp2715
g35
I7
sg36
I0
sbsba(imap.components.floor
Floor
p2716
(dp2717
g29
I01
sg30
g122
sg32
(imap.components.point
Point
p2718
(dp2719
g35
I7
sg36
I1
sbsba(imap.components.floor
Floor
p2720
(dp2721
g29
I01
sg30
g122
sg32
(imap.components.point
Point
p2722
(dp2723
g35
I7
sg36
I2
sbsbag642
ag646
ag650
ag654
ag658
ag662
ag666
ag670
ag674
ag678
ag682
ag686
ag690
ag694
ag698
ag702
ag706
a(imap.components.floor
Floor
p2724
(dp2725
g29
I01
sg30
g122
sg32
(imap.components.point
Point
p2726
(dp2727
g35
I7
sg36
I20
sbsba(imap.components.floor
Floor
p2728
(dp2729
g29
I01
sg30
g122
sg32
(imap.components.point
Point
p2730
(dp2731
g35
I7
sg36
I21
sbsba(imap.components.door
Door
p2732
(dp2733
g29
I01
sg30
g171
sg32
(imap.components.point
Point
p2734
(dp2735
g35
I7
sg36
I22
sbsba(imap.components.floor
Floor
p2736
(dp2737
g29
I01
sg30
g122
sg32
(imap.components.point
Point
p2738
(dp2739
g35
I7
sg36
I23
sbsba(imap.components.floor
Floor
p2740
(dp2741
g29
I01
sg30
g122
sg32
(imap.components.point
Point
p2742
(dp2743
g35
I7
sg36
I24
sbsba(imap.components.floor
Floor
p2744
(dp2745
g29
I01
sg30
g122
sg32
(imap.components.point
Point
p2746
(dp2747
g35
I7
sg36
I25
sbsba(imap.components.floor
Floor
p2748
(dp2749
g29
I01
sg30
g122
sg32
(imap.components.point
Point
p2750
(dp2751
g35
I7
sg36
I26
sbsba(imap.components.floor
Floor
p2752
(dp2753
g29
I01
sg30
g122
sg32
(imap.components.point
Point
p2754
(dp2755
g35
I7
sg36
I27
sbsba(imap.components.floor
Floor
p2756
(dp2757
g29
I01
sg30
g122
sg32
(imap.components.point
Point
p2758
(dp2759
g35
I7
sg36
I28
sbsba(imap.components.floor
Floor
p2760
(dp2761
g29
I01
sg30
g122
sg32
(imap.components.point
Point
p2762
(dp2763
g35
I7
sg36
I29
sbsba(imap.components.wall
Wall
p2764
(dp2765
g29
I00
sg30
g41
sg32
(imap.components.point
Point
p2766
(dp2767
g35
I7
sg36
I30
sbsba(imap.components.wall
Wall
p2768
(dp2769
g29
I00
sg30
g41
sg32
(imap.components.point
Point
p2770
(dp2771
g35
I7
sg36
I31
sbsba(imap.components.wall
Wall
p2772
(dp2773
g29
I00
sg30
g41
sg32
(imap.components.point
Point
p2774
(dp2775
g35
I7
sg36
I32
sbsba(imap.components.wall
Wall
p2776
(dp2777
g29
I00
sg30
g41
sg32
(imap.components.point
Point
p2778
(dp2779
g35
I7
sg36
I33
sbsba(imap.components.wall
Wall
p2780
(dp2781
g29
I00
sg30
g41
sg32
(imap.components.point
Point
p2782
(dp2783
g35
I7
sg36
I34
sbsba(imap.components.wall
Wall
p2784
(dp2785
g29
I00
sg30
g41
sg32
(imap.components.point
Point
p2786
(dp2787
g35
I7
sg36
I35
sbsba(imap.components.wall
Wall
p2788
(dp2789
g29
I00
sg30
g41
sg32
(imap.components.point
Point
p2790
(dp2791
g35
I7
sg36
I36
sbsba(imap.components.floor
Floor
p2792
(dp2793
g29
I01
sg30
g122
sg32
(imap.components.point
Point
p2794
(dp2795
g35
I7
sg36
I37
sbsba(imap.components.door
Door
p2796
(dp2797
g29
I01
sg30
g171
sg32
(imap.components.point
Point
p2798
(dp2799
g35
I7
sg36
I38
sbsba(imap.components.floor
Floor
p2800
(dp2801
g29
I01
sg30
g122
sg32
(imap.components.point
Point
p2802
(dp2803
g35
I7
sg36
I39
sbsba(imap.components.wall
Wall
p2804
(dp2805
g29
I00
sg30
g41
sg32
(imap.components.point
Point
p2806
(dp2807
g35
I7
sg36
I40
sbsba(imap.components.wall
Wall
p2808
(dp2809
g29
I00
sg30
g41
sg32
(imap.components.point
Point
p2810
(dp2811
g35
I8
sg36
I0
sbsba(imap.components.floor
Floor
p2812
(dp2813
g29
I01
sg30
g122
sg32
(imap.components.point
Point
p2814
(dp2815
g35
I8
sg36
I1
sbsba(imap.components.floor
Floor
p2816
(dp2817
g29
I01
sg30
g122
sg32
(imap.components.point
Point
p2818
(dp2819
g35
I8
sg36
I2
sbsbag726
ag730
ag734
ag738
ag742
ag746
ag750
ag754
ag758
ag762
ag766
ag770
ag774
ag778
ag782
ag786
ag790
a(imap.components.floor
Floor
p2820
(dp2821
g29
I01
sg30
g122
sg32
(imap.components.point
Point
p2822
(dp2823
g35
I8
sg36
I20
sbsba(imap.components.wall
Wall
p2824
(dp2825
g29
I00
sg30
g41
sg32
(imap.components.point
Point
p2826
(dp2827
g35
I8
sg36
I21
sbsba(imap.components.wall
Wall
p2828
(dp2829
g29
I00
sg30
g41
sg32
(imap.components.point
Point
p2830
(dp2831
g35
I8
sg36
I22
sbsba(imap.components.floor
Floor
p2832
(dp2833
g29
I01
sg30
g122
sg32
(imap.components.point
Point
p2834
(dp2835
g35
I8
sg36
I23
sbsba(imap.components.wall
Wall
p2836
(dp2837
g29
I00
sg30
g41
sg32
(imap.components.point
Point
p2838
(dp2839
g35
I8
sg36
I24
sbsba(imap.components.wall
Wall
p2840
(dp2841
g29
I00
sg30
g41
sg32
(imap.components.point
Point
p2842
(dp2843
g35
I8
sg36
I25
sbsba(imap.components.wall
Wall
p2844
(dp2845
g29
I00
sg30
g41
sg32
(imap.components.point
Point
p2846
(dp2847
g35
I8
sg36
I26
sbsba(imap.components.wall
Wall
p2848
(dp2849
g29
I00
sg30
g41
sg32
(imap.components.point
Point
p2850
(dp2851
g35
I8
sg36
I27
sbsba(imap.components.wall
Wall
p2852
(dp2853
g29
I00
sg30
g41
sg32
(imap.components.point
Point
p2854
(dp2855
g35
I8
sg36
I28
sbsba(imap.components.floor
Floor
p2856
(dp2857
g29
I01
sg30
g122
sg32
(imap.components.point
Point
p2858
(dp2859
g35
I8
sg36
I29
sbsba(imap.components.door
Door
p2860
(dp2861
g29
I01
sg30
g171
sg32
(imap.components.point
Point
p2862
(dp2863
g35
I8
sg36
I30
sbsba(imap.components.floor
Floor
p2864
(dp2865
g29
I01
sg30
g122
sg32
(imap.components.point
Point
p2866
(dp2867
g35
I8
sg36
I31
sbsba(imap.components.floor
Floor
p2868
(dp2869
g29
I01
sg30
g122
sg32
(imap.components.point
Point
p2870
(dp2871
g35
I8
sg36
I32
sbsba(imap.components.floor
Floor
p2872
(dp2873
g29
I01
sg30
g122
sg32
(imap.components.point
Point
p2874
(dp2875
g35
I8
sg36
I33
sbsba(imap.components.floor
Floor
p2876
(dp2877
g29
I01
sg30
g122
sg32
(imap.components.point
Point
p2878
(dp2879
g35
I8
sg36
I34
sbsba(imap.components.floor
Floor
p2880
(dp2881
g29
I01
sg30
g122
sg32
(imap.components.point
Point
p2882
(dp2883
g35
I8
sg36
I35
sbsba(imap.components.wall
Wall
p2884
(dp2885
g29
I00
sg30
g41
sg32
(imap.components.point
Point
p2886
(dp2887
g35
I8
sg36
I36
sbsba(imap.components.wall
Wall
p2888
(dp2889
g29
I00
sg30
g41
sg32
(imap.components.point
Point
p2890
(dp2891
g35
I8
sg36
I37
sbsba(imap.components.wall
Wall
p2892
(dp2893
g29
I00
sg30
g41
sg32
(imap.components.point
Point
p2894
(dp2895
g35
I8
sg36
I38
sbsba(imap.components.wall
Wall
p2896
(dp2897
g29
I00
sg30
g41
sg32
(imap.components.point
Point
p2898
(dp2899
g35
I8
sg36
I39
sbsba(imap.components.wall
Wall
p2900
(dp2901
g29
I00
sg30
g41
sg32
(imap.components.point
Point
p2902
(dp2903
g35
I8
sg36
I40
sbsba(imap.components.wall
Wall
p2904
(dp2905
g29
I00
sg30
g41
sg32
(imap.components.point
Point
p2906
(dp2907
g35
I9
sg36
I0
sbsba(imap.components.floor
Floor
p2908
(dp2909
g29
I01
sg30
g122
sg32
(imap.components.point
Point
p2910
(dp2911
g35
I9
sg36
I1
sbsba(imap.components.wall
Wall
p2912
(dp2913
g29
I00
sg30
g41
sg32
(imap.components.point
Point
p2914
(dp2915
g35
I9
sg36
I2
sbsba(imap.components.wall
Wall
p2916
(dp2917
g29
I00
sg30
g41
sg32
(imap.components.point
Point
p2918
(dp2919
g35
I9
sg36
I3
sbsbag814
ag818
ag822
ag826
ag830
ag834
ag838
ag842
ag846
ag850
ag854
ag858
ag862
ag866
ag870
ag874
a(imap.components.floor
Floor
p2920
(dp2921
g29
I01
sg30
g122
sg32
(imap.components.point
Point
p2922
(dp2923
g35
I9
sg36
I20
sbsba(imap.components.wall
Wall
p2924
(dp2925
g29
I00
sg30
g41
sg32
(imap.components.point
Point
p2926
(dp2927
g35
I9
sg36
I21
sbsba(imap.components.wall
Wall
p2928
(dp2929
g29
I00
sg30
g41
sg32
(imap.components.point
Point
p2930
(dp2931
g35
I9
sg36
I22
sbsba(imap.components.floor
Floor
p2932
(dp2933
g29
I01
sg30
g122
sg32
(imap.components.point
Point
p2934
(dp2935
g35
I9
sg36
I23
sbsba(imap.components.wall
Wall
p2936
(dp2937
g29
I00
sg30
g41
sg32
(imap.components.point
Point
p2938
(dp2939
g35
I9
sg36
I24
sbsba(imap.components.floor
Floor
p2940
(dp2941
g29
I01
sg30
g122
sg32
(imap.components.point
Point
p2942
(dp2943
g35
I9
sg36
I25
sbsba(imap.components.door
Door
p2944
(dp2945
g29
I01
sg30
g171
sg32
(imap.components.point
Point
p2946
(dp2947
g35
I9
sg36
I26
sbsba(imap.components.floor
Floor
p2948
(dp2949
g29
I01
sg30
g122
sg32
(imap.components.point
Point
p2950
(dp2951
g35
I9
sg36
I27
sbsba(imap.components.wall
Wall
p2952
(dp2953
g29
I00
sg30
g41
sg32
(imap.components.point
Point
p2954
(dp2955
g35
I9
sg36
I28
sbsba(imap.components.floor
Floor
p2956
(dp2957
g29
I01
sg30
g122
sg32
(imap.components.point
Point
p2958
(dp2959
g35
I9
sg36
I29
sbsba(imap.components.wall
Wall
p2960
(dp2961
g29
I00
sg30
g41
sg32
(imap.components.point
Point
p2962
(dp2963
g35
I9
sg36
I30
sbsba(imap.components.wall
Wall
p2964
(dp2965
g29
I00
sg30
g41
sg32
(imap.components.point
Point
p2966
(dp2967
g35
I9
sg36
I31
sbsba(imap.components.wall
Wall
p2968
(dp2969
g29
I00
sg30
g41
sg32
(imap.components.point
Point
p2970
(dp2971
g35
I9
sg36
I32
sbsba(imap.components.wall
Wall
p2972
(dp2973
g29
I00
sg30
g41
sg32
(imap.components.point
Point
p2974
(dp2975
g35
I9
sg36
I33
sbsba(imap.components.wall
Wall
p2976
(dp2977
g29
I00
sg30
g41
sg32
(imap.components.point
Point
p2978
(dp2979
g35
I9
sg36
I34
sbsba(imap.components.floor
Floor
p2980
(dp2981
g29
I01
sg30
g122
sg32
(imap.components.point
Point
p2982
(dp2983
g35
I9
sg36
I35
sbsba(imap.components.door
Door
p2984
(dp2985
g29
I01
sg30
g171
sg32
(imap.components.point
Point
p2986
(dp2987
g35
I9
sg36
I36
sbsba(imap.components.floor
Floor
p2988
(dp2989
g29
I01
sg30
g122
sg32
(imap.components.point
Point
p2990
(dp2991
g35
I9
sg36
I37
sbsba(imap.components.floor
Floor
p2992
(dp2993
g29
I01
sg30
g122
sg32
(imap.components.point
Point
p2994
(dp2995
g35
I9
sg36
I38
sbsba(imap.components.floor
Floor
p2996
(dp2997
g29
I01
sg30
g122
sg32
(imap.components.point
Point
p2998
(dp2999
g35
I9
sg36
I39
sbsba(imap.components.wall
Wall
p3000
(dp3001
g29
I00
sg30
g41
sg32
(imap.components.point
Point
p3002
(dp3003
g35
I9
sg36
I40
sbsba(imap.components.wall
Wall
p3004
(dp3005
g29
I00
sg30
g41
sg32
(imap.components.point
Point
p3006
(dp3007
g35
I10
sg36
I0
sbsba(imap.components.floor
Floor
p3008
(dp3009
g29
I01
sg30
g122
sg32
(imap.components.point
Point
p3010
(dp3011
g35
I10
sg36
I1
sbsba(imap.components.floor
Floor
p3012
(dp3013
g29
I01
sg30
g122
sg32
(imap.components.point
Point
p3014
(dp3015
g35
I10
sg36
I2
sbsba(imap.components.floor
Floor
p3016
(dp3017
g29
I01
sg30
g122
sg32
(imap.components.point
Point
p3018
(dp3019
g35
I10
sg36
I3
sbsba(imap.components.floor
Floor
p3020
(dp3021
g29
I01
sg30
g122
sg32
(imap.components.point
Point
p3022
(dp3023
g35
I10
sg36
I4
sbsba(imap.components.floor
Floor
p3024
(dp3025
g29
I01
sg30
g122
sg32
(imap.components.point
Point
p3026
(dp3027
g35
I10
sg36
I5
sbsbag906
ag910
ag914
ag918
ag922
ag926
ag930
ag934
ag938
ag942
ag946
ag950
ag954
ag958
a(imap.components.floor
Floor
p3028
(dp3029
g29
I01
sg30
g122
sg32
(imap.components.point
Point
p3030
(dp3031
g35
I10
sg36
I20
sbsba(imap.components.door
Door
p3032
(dp3033
g29
I01
sg30
g171
sg32
(imap.components.point
Point
p3034
(dp3035
g35
I10
sg36
I21
sbsba(imap.components.floor
Floor
p3036
(dp3037
g29
I01
sg30
g122
sg32
(imap.components.point
Point
p3038
(dp3039
g35
I10
sg36
I22
sbsba(imap.components.floor
Floor
p3040
(dp3041
g29
I01
sg30
g122
sg32
(imap.components.point
Point
p3042
(dp3043
g35
I10
sg36
I23
sbsba(imap.components.wall
Wall
p3044
(dp3045
g29
I00
sg30
g41
sg32
(imap.components.point
Point
p3046
(dp3047
g35
I10
sg36
I24
sbsba(imap.components.floor
Floor
p3048
(dp3049
g29
I01
sg30
g122
sg32
(imap.components.point
Point
p3050
(dp3051
g35
I10
sg36
I25
sbsba(imap.components.wall
Wall
p3052
(dp3053
g29
I00
sg30
g41
sg32
(imap.components.point
Point
p3054
(dp3055
g35
I10
sg36
I26
sbsba(imap.components.floor
Floor
p3056
(dp3057
g29
I01
sg30
g122
sg32
(imap.components.point
Point
p3058
(dp3059
g35
I10
sg36
I27
sbsba(imap.components.wall
Wall
p3060
(dp3061
g29
I00
sg30
g41
sg32
(imap.components.point
Point
p3062
(dp3063
g35
I10
sg36
I28
sbsba(imap.components.floor
Floor
p3064
(dp3065
g29
I01
sg30
g122
sg32
(imap.components.point
Point
p3066
(dp3067
g35
I10
sg36
I29
sbsba(imap.components.door
Door
p3068
(dp3069
g29
I01
sg30
g171
sg32
(imap.components.point
Point
p3070
(dp3071
g35
I10
sg36
I30
sbsba(imap.components.floor
Floor
p3072
(dp3073
g29
I01
sg30
g122
sg32
(imap.components.point
Point
p3074
(dp3075
g35
I10
sg36
I31
sbsba(imap.components.floor
Floor
p3076
(dp3077
g29
I01
sg30
g122
sg32
(imap.components.point
Point
p3078
(dp3079
g35
I10
sg36
I32
sbsba(imap.components.floor
Floor
p3080
(dp3081
g29
I01
sg30
g122
sg32
(imap.components.point
Point
p3082
(dp3083
g35
I10
sg36
I33
sbsba(imap.components.floor
Floor
p3084
(dp3085
g29
I01
sg30
g122
sg32
(imap.components.point
Point
p3086
(dp3087
g35
I10
sg36
I34
sbsba(imap.components.floor
Floor
p3088
(dp3089
g29
I01
sg30
g122
sg32
(imap.components.point
Point
p3090
(dp3091
g35
I10
sg36
I35
sbsba(imap.components.wall
Wall
p3092
(dp3093
g29
I00
sg30
g41
sg32
(imap.components.point
Point
p3094
(dp3095
g35
I10
sg36
I36
sbsba(imap.components.wall
Wall
p3096
(dp3097
g29
I00
sg30
g41
sg32
(imap.components.point
Point
p3098
(dp3099
g35
I10
sg36
I37
sbsba(imap.components.wall
Wall
p3100
(dp3101
g29
I00
sg30
g41
sg32
(imap.components.point
Point
p3102
(dp3103
g35
I10
sg36
I38
sbsba(imap.components.floor
Floor
p3104
(dp3105
g29
I01
sg30
g122
sg32
(imap.components.point
Point
p3106
(dp3107
g35
I10
sg36
I39
sbsba(imap.components.wall
Wall
p3108
(dp3109
g29
I00
sg30
g41
sg32
(imap.components.point
Point
p3110
(dp3111
g35
I10
sg36
I40
sbsba(imap.components.wall
Wall
p3112
(dp3113
g29
I00
sg30
g41
sg32
(imap.components.point
Point
p3114
(dp3115
g35
I11
sg36
I0
sbsba(imap.components.wall
Wall
p3116
(dp3117
g29
I00
sg30
g41
sg32
(imap.components.point
Point
p3118
(dp3119
g35
I11
sg36
I1
sbsba(imap.components.wall
Wall
p3120
(dp3121
g29
I00
sg30
g41
sg32
(imap.components.point
Point
p3122
(dp3123
g35
I11
sg36
I2
sbsba(imap.components.wall
Wall
p3124
(dp3125
g29
I00
sg30
g41
sg32
(imap.components.point
Point
p3126
(dp3127
g35
I11
sg36
I3
sbsba(imap.components.wall
Wall
p3128
(dp3129
g29
I00
sg30
g41
sg32
(imap.components.point
Point
p3130
(dp3131
g35
I11
sg36
I4
sbsba(imap.components.floor
Floor
p3132
(dp3133
g29
I01
sg30
g122
sg32
(imap.components.point
Point
p3134
(dp3135
g35
I11
sg36
I5
sbsbag990
ag994
ag998
ag1002
ag1006
ag1010
ag1014
ag1018
ag1022
ag1026
ag1030
ag1034
ag1038
ag1042
a(imap.components.floor
Floor
p3136
(dp3137
g29
I01
sg30
g122
sg32
(imap.components.point
Point
p3138
(dp3139
g35
I11
sg36
I20
sbsba(imap.components.wall
Wall
p3140
(dp3141
g29
I00
sg30
g41
sg32
(imap.components.point
Point
p3142
(dp3143
g35
I11
sg36
I21
sbsba(imap.components.wall
Wall
p3144
(dp3145
g29
I00
sg30
g41
sg32
(imap.components.point
Point
p3146
(dp3147
g35
I11
sg36
I22
sbsba(imap.components.wall
Wall
p3148
(dp3149
g29
I00
sg30
g41
sg32
(imap.components.point
Point
p3150
(dp3151
g35
I11
sg36
I23
sbsba(imap.components.wall
Wall
p3152
(dp3153
g29
I00
sg30
g41
sg32
(imap.components.point
Point
p3154
(dp3155
g35
I11
sg36
I24
sbsba(imap.components.floor
Floor
p3156
(dp3157
g29
I01
sg30
g122
sg32
(imap.components.point
Point
p3158
(dp3159
g35
I11
sg36
I25
sbsba(imap.components.wall
Wall
p3160
(dp3161
g29
I00
sg30
g41
sg32
(imap.components.point
Point
p3162
(dp3163
g35
I11
sg36
I26
sbsba(imap.components.floor
Floor
p3164
(dp3165
g29
I01
sg30
g122
sg32
(imap.components.point
Point
p3166
(dp3167
g35
I11
sg36
I27
sbsba(imap.components.wall
Wall
p3168
(dp3169
g29
I00
sg30
g41
sg32
(imap.components.point
Point
p3170
(dp3171
g35
I11
sg36
I28
sbsba(imap.components.floor
Floor
p3172
(dp3173
g29
I01
sg30
g122
sg32
(imap.components.point
Point
p3174
(dp3175
g35
I11
sg36
I29
sbsba(imap.components.wall
Wall
p3176
(dp3177
g29
I00
sg30
g41
sg32
(imap.components.point
Point
p3178
(dp3179
g35
I11
sg36
I30
sbsba(imap.components.wall
Wall
p3180
(dp3181
g29
I00
sg30
g41
sg32
(imap.components.point
Point
p3182
(dp3183
g35
I11
sg36
I31
sbsba(imap.components.wall
Wall
p3184
(dp3185
g29
I00
sg30
g41
sg32
(imap.components.point
Point
p3186
(dp3187
g35
I11
sg36
I32
sbsba(imap.components.wall
Wall
p3188
(dp3189
g29
I00
sg30
g41
sg32
(imap.components.point
Point
p3190
(dp3191
g35
I11
sg36
I33
sbsba(imap.components.wall
Wall
p3192
(dp3193
g29
I00
sg30
g41
sg32
(imap.components.point
Point
p3194
(dp3195
g35
I11
sg36
I34
sbsba(imap.components.wall
Wall
p3196
(dp3197
g29
I00
sg30
g41
sg32
(imap.components.point
Point
p3198
(dp3199
g35
I11
sg36
I35
sbsba(imap.components.wall
Wall
p3200
(dp3201
g29
I00
sg30
g41
sg32
(imap.components.point
Point
p3202
(dp3203
g35
I11
sg36
I36
sbsba(imap.components.floor
Floor
p3204
(dp3205
g29
I01
sg30
g122
sg32
(imap.components.point
Point
p3206
(dp3207
g35
I11
sg36
I37
sbsba(imap.components.wall
Wall
p3208
(dp3209
g29
I00
sg30
g41
sg32
(imap.components.point
Point
p3210
(dp3211
g35
I11
sg36
I38
sbsba(imap.components.floor
Floor
p3212
(dp3213
g29
I01
sg30
g122
sg32
(imap.components.point
Point
p3214
(dp3215
g35
I11
sg36
I39
sbsba(imap.components.wall
Wall
p3216
(dp3217
g29
I00
sg30
g41
sg32
(imap.components.point
Point
p3218
(dp3219
g35
I11
sg36
I40
sbsba(imap.components.wall
Wall
p3220
(dp3221
g29
I00
sg30
g41
sg32
(imap.components.point
Point
p3222
(dp3223
g35
I12
sg36
I0
sbsba(imap.components.floor
Floor
p3224
(dp3225
g29
I01
sg30
g122
sg32
(imap.components.point
Point
p3226
(dp3227
g35
I12
sg36
I1
sbsba(imap.components.floor
Floor
p3228
(dp3229
g29
I01
sg30
g122
sg32
(imap.components.point
Point
p3230
(dp3231
g35
I12
sg36
I2
sbsba(imap.components.floor
Floor
p3232
(dp3233
g29
I01
sg30
g122
sg32
(imap.components.point
Point
p3234
(dp3235
g35
I12
sg36
I3
sbsba(imap.components.wall
Wall
p3236
(dp3237
g29
I00
sg30
g41
sg32
(imap.components.point
Point
p3238
(dp3239
g35
I12
sg36
I4
sbsba(imap.components.floor
Floor
p3240
(dp3241
g29
I01
sg30
g122
sg32
(imap.components.point
Point
p3242
(dp3243
g35
I12
sg36
I5
sbsbag1074
ag1078
ag1082
ag1086
ag1090
ag1094
ag1098
ag1102
ag1106
ag1110
ag1114
ag1118
ag1122
ag1126
a(imap.components.floor
Floor
p3244
(dp3245
g29
I01
sg30
g122
sg32
(imap.components.point
Point
p3246
(dp3247
g35
I12
sg36
I20
sbsba(imap.components.wall
Wall
p3248
(dp3249
g29
I00
sg30
g41
sg32
(imap.components.point
Point
p3250
(dp3251
g35
I12
sg36
I21
sbsba(imap.components.floor
Floor
p3252
(dp3253
g29
I01
sg30
g122
sg32
(imap.components.point
Point
p3254
(dp3255
g35
I12
sg36
I22
sbsba(imap.components.wall
Wall
p3256
(dp3257
g29
I00
sg30
g41
sg32
(imap.components.point
Point
p3258
(dp3259
g35
I12
sg36
I23
sbsba(imap.components.floor
Floor
p3260
(dp3261
g29
I01
sg30
g122
sg32
(imap.components.point
Point
p3262
(dp3263
g35
I12
sg36
I24
sbsba(imap.components.floor
Floor
p3264
(dp3265
g29
I01
sg30
g122
sg32
(imap.components.point
Point
p3266
(dp3267
g35
I12
sg36
I25
sbsba(imap.components.wall
Wall
p3268
(dp3269
g29
I00
sg30
g41
sg32
(imap.components.point
Point
p3270
(dp3271
g35
I12
sg36
I26
sbsba(imap.components.floor
Floor
p3272
(dp3273
g29
I01
sg30
g122
sg32
(imap.components.point
Point
p3274
(dp3275
g35
I12
sg36
I27
sbsba(imap.components.wall
Wall
p3276
(dp3277
g29
I00
sg30
g41
sg32
(imap.components.point
Point
p3278
(dp3279
g35
I12
sg36
I28
sbsba(imap.components.floor
Floor
p3280
(dp3281
g29
I01
sg30
g122
sg32
(imap.components.point
Point
p3282
(dp3283
g35
I12
sg36
I29
sbsba(imap.components.wall
Wall
p3284
(dp3285
g29
I00
sg30
g41
sg32
(imap.components.point
Point
p3286
(dp3287
g35
I12
sg36
I30
sbsba(imap.components.floor
Floor
p3288
(dp3289
g29
I01
sg30
g122
sg32
(imap.components.point
Point
p3290
(dp3291
g35
I12
sg36
I31
sbsba(imap.components.floor
Floor
p3292
(dp3293
g29
I01
sg30
g122
sg32
(imap.components.point
Point
p3294
(dp3295
g35
I12
sg36
I32
sbsba(imap.components.door
Door
p3296
(dp3297
g29
I01
sg30
g171
sg32
(imap.components.point
Point
p3298
(dp3299
g35
I12
sg36
I33
sbsba(imap.components.floor
Floor
p3300
(dp3301
g29
I01
sg30
g122
sg32
(imap.components.point
Point
p3302
(dp3303
g35
I12
sg36
I34
sbsba(imap.components.door
Door
p3304
(dp3305
g29
I01
sg30
g171
sg32
(imap.components.point
Point
p3306
(dp3307
g35
I12
sg36
I35
sbsba(imap.components.floor
Floor
p3308
(dp3309
g29
I01
sg30
g122
sg32
(imap.components.point
Point
p3310
(dp3311
g35
I12
sg36
I36
sbsba(imap.components.floor
Floor
p3312
(dp3313
g29
I01
sg30
g122
sg32
(imap.components.point
Point
p3314
(dp3315
g35
I12
sg36
I37
sbsba(imap.components.wall
Wall
p3316
(dp3317
g29
I00
sg30
g41
sg32
(imap.components.point
Point
p3318
(dp3319
g35
I12
sg36
I38
sbsba(imap.components.floor
Floor
p3320
(dp3321
g29
I01
sg30
g122
sg32
(imap.components.point
Point
p3322
(dp3323
g35
I12
sg36
I39
sbsba(imap.components.wall
Wall
p3324
(dp3325
g29
I00
sg30
g41
sg32
(imap.components.point
Point
p3326
(dp3327
g35
I12
sg36
I40
sbsba(imap.components.wall
Wall
p3328
(dp3329
g29
I00
sg30
g41
sg32
(imap.components.point
Point
p3330
(dp3331
g35
I13
sg36
I0
sbsba(imap.components.floor
Floor
p3332
(dp3333
g29
I01
sg30
g122
sg32
(imap.components.point
Point
p3334
(dp3335
g35
I13
sg36
I1
sbsba(imap.components.floor
Floor
p3336
(dp3337
g29
I01
sg30
g122
sg32
(imap.components.point
Point
p3338
(dp3339
g35
I13
sg36
I2
sbsba(imap.components.floor
Floor
p3340
(dp3341
g29
I01
sg30
g122
sg32
(imap.components.point
Point
p3342
(dp3343
g35
I13
sg36
I3
sbsba(imap.components.wall
Wall
p3344
(dp3345
g29
I00
sg30
g41
sg32
(imap.components.point
Point
p3346
(dp3347
g35
I13
sg36
I4
sbsba(imap.components.floor
Floor
p3348
(dp3349
g29
I01
sg30
g122
sg32
(imap.components.point
Point
p3350
(dp3351
g35
I13
sg36
I5
sbsbag1158
ag1162
ag1166
ag1170
ag1174
ag1178
ag1182
ag1186
ag1190
ag1194
ag1198
ag1202
ag1206
ag1210
a(imap.components.floor
Floor
p3352
(dp3353
g29
I01
sg30
g122
sg32
(imap.components.point
Point
p3354
(dp3355
g35
I13
sg36
I20
sbsba(imap.components.wall
Wall
p3356
(dp3357
g29
I00
sg30
g41
sg32
(imap.components.point
Point
p3358
(dp3359
g35
I13
sg36
I21
sbsba(imap.components.floor
Floor
p3360
(dp3361
g29
I01
sg30
g122
sg32
(imap.components.point
Point
p3362
(dp3363
g35
I13
sg36
I22
sbsba(imap.components.wall
Wall
p3364
(dp3365
g29
I00
sg30
g41
sg32
(imap.components.point
Point
p3366
(dp3367
g35
I13
sg36
I23
sbsba(imap.components.floor
Floor
p3368
(dp3369
g29
I01
sg30
g122
sg32
(imap.components.point
Point
p3370
(dp3371
g35
I13
sg36
I24
sbsba(imap.components.floor
Floor
p3372
(dp3373
g29
I01
sg30
g122
sg32
(imap.components.point
Point
p3374
(dp3375
g35
I13
sg36
I25
sbsba(imap.components.door
Door
p3376
(dp3377
g29
I01
sg30
g171
sg32
(imap.components.point
Point
p3378
(dp3379
g35
I13
sg36
I26
sbsba(imap.components.floor
Floor
p3380
(dp3381
g29
I01
sg30
g122
sg32
(imap.components.point
Point
p3382
(dp3383
g35
I13
sg36
I27
sbsba(imap.components.wall
Wall
p3384
(dp3385
g29
I00
sg30
g41
sg32
(imap.components.point
Point
p3386
(dp3387
g35
I13
sg36
I28
sbsba(imap.components.floor
Floor
p3388
(dp3389
g29
I01
sg30
g122
sg32
(imap.components.point
Point
p3390
(dp3391
g35
I13
sg36
I29
sbsba(imap.components.wall
Wall
p3392
(dp3393
g29
I00
sg30
g41
sg32
(imap.components.point
Point
p3394
(dp3395
g35
I13
sg36
I30
sbsba(imap.components.floor
Floor
p3396
(dp3397
g29
I01
sg30
g122
sg32
(imap.components.point
Point
p3398
(dp3399
g35
I13
sg36
I31
sbsba(imap.components.floor
Floor
p3400
(dp3401
g29
I01
sg30
g122
sg32
(imap.components.point
Point
p3402
(dp3403
g35
I13
sg36
I32
sbsba(imap.components.wall
Wall
p3404
(dp3405
g29
I00
sg30
g41
sg32
(imap.components.point
Point
p3406
(dp3407
g35
I13
sg36
I33
sbsba(imap.components.floor
Floor
p3408
(dp3409
g29
I01
sg30
g122
sg32
(imap.components.point
Point
p3410
(dp3411
g35
I13
sg36
I34
sbsba(imap.components.wall
Wall
p3412
(dp3413
g29
I00
sg30
g41
sg32
(imap.components.point
Point
p3414
(dp3415
g35
I13
sg36
I35
sbsba(imap.components.floor
Floor
p3416
(dp3417
g29
I01
sg30
g122
sg32
(imap.components.point
Point
p3418
(dp3419
g35
I13
sg36
I36
sbsba(imap.components.floor
Floor
p3420
(dp3421
g29
I01
sg30
g122
sg32
(imap.components.point
Point
p3422
(dp3423
g35
I13
sg36
I37
sbsba(imap.components.wall
Wall
p3424
(dp3425
g29
I00
sg30
g41
sg32
(imap.components.point
Point
p3426
(dp3427
g35
I13
sg36
I38
sbsba(imap.components.floor
Floor
p3428
(dp3429
g29
I01
sg30
g122
sg32
(imap.components.point
Point
p3430
(dp3431
g35
I13
sg36
I39
sbsba(imap.components.wall
Wall
p3432
(dp3433
g29
I00
sg30
g41
sg32
(imap.components.point
Point
p3434
(dp3435
g35
I13
sg36
I40
sbsba(imap.components.wall
Wall
p3436
(dp3437
g29
I00
sg30
g41
sg32
(imap.components.point
Point
p3438
(dp3439
g35
I14
sg36
I0
sbsba(imap.components.floor
Floor
p3440
(dp3441
g29
I01
sg30
g122
sg32
(imap.components.point
Point
p3442
(dp3443
g35
I14
sg36
I1
sbsba(imap.components.wall
Wall
p3444
(dp3445
g29
I00
sg30
g41
sg32
(imap.components.point
Point
p3446
(dp3447
g35
I14
sg36
I2
sbsba(imap.components.floor
Floor
p3448
(dp3449
g29
I01
sg30
g122
sg32
(imap.components.point
Point
p3450
(dp3451
g35
I14
sg36
I3
sbsba(imap.components.wall
Wall
p3452
(dp3453
g29
I00
sg30
g41
sg32
(imap.components.point
Point
p3454
(dp3455
g35
I14
sg36
I4
sbsba(imap.components.door
Door
p3456
(dp3457
g29
I01
sg30
g171
sg32
(imap.components.point
Point
p3458
(dp3459
g35
I14
sg36
I5
sbsbag1242
ag1246
ag1250
ag1254
ag1258
ag1262
ag1266
ag1270
ag1274
ag1278
ag1282
ag1286
ag1290
ag1294
a(imap.components.floor
Floor
p3460
(dp3461
g29
I01
sg30
g122
sg32
(imap.components.point
Point
p3462
(dp3463
g35
I14
sg36
I20
sbsba(imap.components.wall
Wall
p3464
(dp3465
g29
I00
sg30
g41
sg32
(imap.components.point
Point
p3466
(dp3467
g35
I14
sg36
I21
sbsba(imap.components.floor
Floor
p3468
(dp3469
g29
I01
sg30
g122
sg32
(imap.components.point
Point
p3470
(dp3471
g35
I14
sg36
I22
sbsba(imap.components.wall
Wall
p3472
(dp3473
g29
I00
sg30
g41
sg32
(imap.components.point
Point
p3474
(dp3475
g35
I14
sg36
I23
sbsba(imap.components.door
Door
p3476
(dp3477
g29
I01
sg30
g171
sg32
(imap.components.point
Point
p3478
(dp3479
g35
I14
sg36
I24
sbsba(imap.components.wall
Wall
p3480
(dp3481
g29
I00
sg30
g41
sg32
(imap.components.point
Point
p3482
(dp3483
g35
I14
sg36
I25
sbsba(imap.components.wall
Wall
p3484
(dp3485
g29
I00
sg30
g41
sg32
(imap.components.point
Point
p3486
(dp3487
g35
I14
sg36
I26
sbsba(imap.components.wall
Wall
p3488
(dp3489
g29
I00
sg30
g41
sg32
(imap.components.point
Point
p3490
(dp3491
g35
I14
sg36
I27
sbsba(imap.components.wall
Wall
p3492
(dp3493
g29
I00
sg30
g41
sg32
(imap.components.point
Point
p3494
(dp3495
g35
I14
sg36
I28
sbsba(imap.components.floor
Floor
p3496
(dp3497
g29
I01
sg30
g122
sg32
(imap.components.point
Point
p3498
(dp3499
g35
I14
sg36
I29
sbsba(imap.components.wall
Wall
p3500
(dp3501
g29
I00
sg30
g41
sg32
(imap.components.point
Point
p3502
(dp3503
g35
I14
sg36
I30
sbsba(imap.components.wall
Wall
p3504
(dp3505
g29
I00
sg30
g41
sg32
(imap.components.point
Point
p3506
(dp3507
g35
I14
sg36
I31
sbsba(imap.components.wall
Wall
p3508
(dp3509
g29
I00
sg30
g41
sg32
(imap.components.point
Point
p3510
(dp3511
g35
I14
sg36
I32
sbsba(imap.components.wall
Wall
p3512
(dp3513
g29
I00
sg30
g41
sg32
(imap.components.point
Point
p3514
(dp3515
g35
I14
sg36
I33
sbsba(imap.components.door
Door
p3516
(dp3517
g29
I01
sg30
g171
sg32
(imap.components.point
Point
p3518
(dp3519
g35
I14
sg36
I34
sbsba(imap.components.wall
Wall
p3520
(dp3521
g29
I00
sg30
g41
sg32
(imap.components.point
Point
p3522
(dp3523
g35
I14
sg36
I35
sbsba(imap.components.wall
Wall
p3524
(dp3525
g29
I00
sg30
g41
sg32
(imap.components.point
Point
p3526
(dp3527
g35
I14
sg36
I36
sbsba(imap.components.wall
Wall
p3528
(dp3529
g29
I00
sg30
g41
sg32
(imap.components.point
Point
p3530
(dp3531
g35
I14
sg36
I37
sbsba(imap.components.wall
Wall
p3532
(dp3533
g29
I00
sg30
g41
sg32
(imap.components.point
Point
p3534
(dp3535
g35
I14
sg36
I38
sbsba(imap.components.floor
Floor
p3536
(dp3537
g29
I01
sg30
g122
sg32
(imap.components.point
Point
p3538
(dp3539
g35
I14
sg36
I39
sbsba(imap.components.wall
Wall
p3540
(dp3541
g29
I00
sg30
g41
sg32
(imap.components.point
Point
p3542
(dp3543
g35
I14
sg36
I40
sbsba(imap.components.wall
Wall
p3544
(dp3545
g29
I00
sg30
g41
sg32
(imap.components.point
Point
p3546
(dp3547
g35
I15
sg36
I0
sbsba(imap.components.floor
Floor
p3548
(dp3549
g29
I01
sg30
g122
sg32
(imap.components.point
Point
p3550
(dp3551
g35
I15
sg36
I1
sbsba(imap.components.wall
Wall
p3552
(dp3553
g29
I00
sg30
g41
sg32
(imap.components.point
Point
p3554
(dp3555
g35
I15
sg36
I2
sbsba(imap.components.wall
Wall
p3556
(dp3557
g29
I00
sg30
g41
sg32
(imap.components.point
Point
p3558
(dp3559
g35
I15
sg36
I3
sbsba(imap.components.wall
Wall
p3560
(dp3561
g29
I00
sg30
g41
sg32
(imap.components.point
Point
p3562
(dp3563
g35
I15
sg36
I4
sbsba(imap.components.floor
Floor
p3564
(dp3565
g29
I01
sg30
g122
sg32
(imap.components.point
Point
p3566
(dp3567
g35
I15
sg36
I5
sbsbag1326
ag1330
ag1334
ag1338
ag1342
ag1346
ag1350
ag1354
ag1358
ag1362
ag1366
ag1370
ag1374
ag1378
a(imap.components.floor
Floor
p3568
(dp3569
g29
I01
sg30
g122
sg32
(imap.components.point
Point
p3570
(dp3571
g35
I15
sg36
I20
sbsba(imap.components.wall
Wall
p3572
(dp3573
g29
I00
sg30
g41
sg32
(imap.components.point
Point
p3574
(dp3575
g35
I15
sg36
I21
sbsba(imap.components.floor
Floor
p3576
(dp3577
g29
I01
sg30
g122
sg32
(imap.components.point
Point
p3578
(dp3579
g35
I15
sg36
I22
sbsba(imap.components.floor
Floor
p3580
(dp3581
g29
I01
sg30
g122
sg32
(imap.components.point
Point
p3582
(dp3583
g35
I15
sg36
I23
sbsba(imap.components.floor
Floor
p3584
(dp3585
g29
I01
sg30
g122
sg32
(imap.components.point
Point
p3586
(dp3587
g35
I15
sg36
I24
sbsba(imap.components.floor
Floor
p3588
(dp3589
g29
I01
sg30
g122
sg32
(imap.components.point
Point
p3590
(dp3591
g35
I15
sg36
I25
sbsba(imap.components.floor
Floor
p3592
(dp3593
g29
I01
sg30
g122
sg32
(imap.components.point
Point
p3594
(dp3595
g35
I15
sg36
I26
sbsba(imap.components.floor
Floor
p3596
(dp3597
g29
I01
sg30
g122
sg32
(imap.components.point
Point
p3598
(dp3599
g35
I15
sg36
I27
sbsba(imap.components.door
Door
p3600
(dp3601
g29
I01
sg30
g171
sg32
(imap.components.point
Point
p3602
(dp3603
g35
I15
sg36
I28
sbsba(imap.components.floor
Floor
p3604
(dp3605
g29
I01
sg30
g122
sg32
(imap.components.point
Point
p3606
(dp3607
g35
I15
sg36
I29
sbsba(imap.components.door
Door
p3608
(dp3609
g29
I01
sg30
g171
sg32
(imap.components.point
Point
p3610
(dp3611
g35
I15
sg36
I30
sbsba(imap.components.floor
Floor
p3612
(dp3613
g29
I01
sg30
g122
sg32
(imap.components.point
Point
p3614
(dp3615
g35
I15
sg36
I31
sbsba(imap.components.floor
Floor
p3616
(dp3617
g29
I01
sg30
g122
sg32
(imap.components.point
Point
p3618
(dp3619
g35
I15
sg36
I32
sbsba(imap.components.wall
Wall
p3620
(dp3621
g29
I00
sg30
g41
sg32
(imap.components.point
Point
p3622
(dp3623
g35
I15
sg36
I33
sbsba(imap.components.floor
Floor
p3624
(dp3625
g29
I01
sg30
g122
sg32
(imap.components.point
Point
p3626
(dp3627
g35
I15
sg36
I34
sbsba(imap.components.floor
Floor
p3628
(dp3629
g29
I01
sg30
g122
sg32
(imap.components.point
Point
p3630
(dp3631
g35
I15
sg36
I35
sbsba(imap.components.floor
Floor
p3632
(dp3633
g29
I01
sg30
g122
sg32
(imap.components.point
Point
p3634
(dp3635
g35
I15
sg36
I36
sbsba(imap.components.floor
Floor
p3636
(dp3637
g29
I01
sg30
g122
sg32
(imap.components.point
Point
p3638
(dp3639
g35
I15
sg36
I37
sbsba(imap.components.door
Door
p3640
(dp3641
g29
I01
sg30
g171
sg32
(imap.components.point
Point
p3642
(dp3643
g35
I15
sg36
I38
sbsba(imap.components.floor
Floor
p3644
(dp3645
g29
I01
sg30
g122
sg32
(imap.components.point
Point
p3646
(dp3647
g35
I15
sg36
I39
sbsba(imap.components.wall
Wall
p3648
(dp3649
g29
I00
sg30
g41
sg32
(imap.components.point
Point
p3650
(dp3651
g35
I15
sg36
I40
sbsba(imap.components.wall
Wall
p3652
(dp3653
g29
I00
sg30
g41
sg32
(imap.components.point
Point
p3654
(dp3655
g35
I16
sg36
I0
sbsba(imap.components.floor
Floor
p3656
(dp3657
g29
I01
sg30
g122
sg32
(imap.components.point
Point
p3658
(dp3659
g35
I16
sg36
I1
sbsba(imap.components.floor
Floor
p3660
(dp3661
g29
I01
sg30
g122
sg32
(imap.components.point
Point
p3662
(dp3663
g35
I16
sg36
I2
sbsba(imap.components.floor
Floor
p3664
(dp3665
g29
I01
sg30
g122
sg32
(imap.components.point
Point
p3666
(dp3667
g35
I16
sg36
I3
sbsba(imap.components.floor
Floor
p3668
(dp3669
g29
I01
sg30
g122
sg32
(imap.components.point
Point
p3670
(dp3671
g35
I16
sg36
I4
sbsba(imap.components.floor
Floor
p3672
(dp3673
g29
I01
sg30
g122
sg32
(imap.components.point
Point
p3674
(dp3675
g35
I16
sg36
I5
sbsbag1410
ag1414
ag1418
ag1422
ag1426
ag1430
ag1434
ag1438
a(imap.components.floor
Floor
p3676
(dp3677
g29
I01
sg30
g122
sg32
(imap.components.point
Point
p3678
(dp3679
g35
I16
sg36
I14
sbsba(imap.components.wall
Wall
p3680
(dp3681
g29
I00
sg30
g41
sg32
(imap.components.point
Point
p3682
(dp3683
g35
I16
sg36
I15
sbsba(imap.components.floor
Floor
p3684
(dp3685
g29
I01
sg30
g122
sg32
(imap.components.point
Point
p3686
(dp3687
g35
I16
sg36
I16
sbsba(imap.components.floor
Floor
p3688
(dp3689
g29
I01
sg30
g122
sg32
(imap.components.point
Point
p3690
(dp3691
g35
I16
sg36
I17
sbsba(imap.components.floor
Floor
p3692
(dp3693
g29
I01
sg30
g122
sg32
(imap.components.point
Point
p3694
(dp3695
g35
I16
sg36
I18
sbsba(imap.components.floor
Floor
p3696
(dp3697
g29
I01
sg30
g122
sg32
(imap.components.point
Point
p3698
(dp3699
g35
I16
sg36
I19
sbsba(imap.components.floor
Floor
p3700
(dp3701
g29
I01
sg30
g122
sg32
(imap.components.point
Point
p3702
(dp3703
g35
I16
sg36
I20
sbsba(imap.components.wall
Wall
p3704
(dp3705
g29
I00
sg30
g41
sg32
(imap.components.point
Point
p3706
(dp3707
g35
I16
sg36
I21
sbsba(imap.components.door
Door
p3708
(dp3709
g29
I01
sg30
g171
sg32
(imap.components.point
Point
p3710
(dp3711
g35
I16
sg36
I22
sbsba(imap.components.wall
Wall
p3712
(dp3713
g29
I00
sg30
g41
sg32
(imap.components.point
Point
p3714
(dp3715
g35
I16
sg36
I23
sbsba(imap.components.door
Door
p3716
(dp3717
g29
I01
sg30
g171
sg32
(imap.components.point
Point
p3718
(dp3719
g35
I16
sg36
I24
sbsba(imap.components.wall
Wall
p3720
(dp3721
g29
I00
sg30
g41
sg32
(imap.components.point
Point
p3722
(dp3723
g35
I16
sg36
I25
sbsba(imap.components.wall
Wall
p3724
(dp3725
g29
I00
sg30
g41
sg32
(imap.components.point
Point
p3726
(dp3727
g35
I16
sg36
I26
sbsba(imap.components.wall
Wall
p3728
(dp3729
g29
I00
sg30
g41
sg32
(imap.components.point
Point
p3730
(dp3731
g35
I16
sg36
I27
sbsba(imap.components.wall
Wall
p3732
(dp3733
g29
I00
sg30
g41
sg32
(imap.components.point
Point
p3734
(dp3735
g35
I16
sg36
I28
sbsba(imap.components.door
Door
p3736
(dp3737
g29
I01
sg30
g171
sg32
(imap.components.point
Point
p3738
(dp3739
g35
I16
sg36
I29
sbsba(imap.components.wall
Wall
p3740
(dp3741
g29
I00
sg30
g41
sg32
(imap.components.point
Point
p3742
(dp3743
g35
I16
sg36
I30
sbsba(imap.components.wall
Wall
p3744
(dp3745
g29
I00
sg30
g41
sg32
(imap.components.point
Point
p3746
(dp3747
g35
I16
sg36
I31
sbsba(imap.components.floor
Floor
p3748
(dp3749
g29
I01
sg30
g122
sg32
(imap.components.point
Point
p3750
(dp3751
g35
I16
sg36
I32
sbsba(imap.components.wall
Wall
p3752
(dp3753
g29
I00
sg30
g41
sg32
(imap.components.point
Point
p3754
(dp3755
g35
I16
sg36
I33
sbsba(imap.components.floor
Floor
p3756
(dp3757
g29
I01
sg30
g122
sg32
(imap.components.point
Point
p3758
(dp3759
g35
I16
sg36
I34
sbsba(imap.components.floor
Floor
p3760
(dp3761
g29
I01
sg30
g122
sg32
(imap.components.point
Point
p3762
(dp3763
g35
I16
sg36
I35
sbsba(imap.components.floor
Floor
p3764
(dp3765
g29
I01
sg30
g122
sg32
(imap.components.point
Point
p3766
(dp3767
g35
I16
sg36
I36
sbsba(imap.components.floor
Floor
p3768
(dp3769
g29
I01
sg30
g122
sg32
(imap.components.point
Point
p3770
(dp3771
g35
I16
sg36
I37
sbsba(imap.components.wall
Wall
p3772
(dp3773
g29
I00
sg30
g41
sg32
(imap.components.point
Point
p3774
(dp3775
g35
I16
sg36
I38
sbsba(imap.components.door
Door
p3776
(dp3777
g29
I01
sg30
g171
sg32
(imap.components.point
Point
p3778
(dp3779
g35
I16
sg36
I39
sbsba(imap.components.wall
Wall
p3780
(dp3781
g29
I00
sg30
g41
sg32
(imap.components.point
Point
p3782
(dp3783
g35
I16
sg36
I40
sbsbag1470
ag1474
ag1478
ag1482
ag1486
ag1490
ag1494
ag1498
ag1502
ag1506
ag1510
ag1514
ag1518
ag1522
a(imap.components.floor
Floor
p3784
(dp3785
g29
I01
sg30
g122
sg32
(imap.components.point
Point
p3786
(dp3787
g35
I17
sg36
I14
sbsba(imap.components.wall
Wall
p3788
(dp3789
g29
I00
sg30
g41
sg32
(imap.components.point
Point
p3790
(dp3791
g35
I17
sg36
I15
sbsba(imap.components.floor
Floor
p3792
(dp3793
g29
I01
sg30
g122
sg32
(imap.components.point
Point
p3794
(dp3795
g35
I17
sg36
I16
sbsba(imap.components.wall
Wall
p3796
(dp3797
g29
I00
sg30
g41
sg32
(imap.components.point
Point
p3798
(dp3799
g35
I17
sg36
I17
sbsba(imap.components.floor
Floor
p3800
(dp3801
g29
I01
sg30
g122
sg32
(imap.components.point
Point
p3802
(dp3803
g35
I17
sg36
I18
sbsba(imap.components.floor
Floor
p3804
(dp3805
g29
I01
sg30
g122
sg32
(imap.components.point
Point
p3806
(dp3807
g35
I17
sg36
I19
sbsba(imap.components.floor
Floor
p3808
(dp3809
g29
I01
sg30
g122
sg32
(imap.components.point
Point
p3810
(dp3811
g35
I17
sg36
I20
sbsba(imap.components.wall
Wall
p3812
(dp3813
g29
I00
sg30
g41
sg32
(imap.components.point
Point
p3814
(dp3815
g35
I17
sg36
I21
sbsba(imap.components.floor
Floor
p3816
(dp3817
g29
I01
sg30
g122
sg32
(imap.components.point
Point
p3818
(dp3819
g35
I17
sg36
I22
sbsba(imap.components.wall
Wall
p3820
(dp3821
g29
I00
sg30
g41
sg32
(imap.components.point
Point
p3822
(dp3823
g35
I17
sg36
I23
sbsba(imap.components.floor
Floor
p3824
(dp3825
g29
I01
sg30
g122
sg32
(imap.components.point
Point
p3826
(dp3827
g35
I17
sg36
I24
sbsba(imap.components.floor
Floor
p3828
(dp3829
g29
I01
sg30
g122
sg32
(imap.components.point
Point
p3830
(dp3831
g35
I17
sg36
I25
sbsba(imap.components.floor
Floor
p3832
(dp3833
g29
I01
sg30
g122
sg32
(imap.components.point
Point
p3834
(dp3835
g35
I17
sg36
I26
sbsba(imap.components.wall
Wall
p3836
(dp3837
g29
I00
sg30
g41
sg32
(imap.components.point
Point
p3838
(dp3839
g35
I17
sg36
I27
sbsba(imap.components.floor
Floor
p3840
(dp3841
g29
I01
sg30
g122
sg32
(imap.components.point
Point
p3842
(dp3843
g35
I17
sg36
I28
sbsba(imap.components.floor
Floor
p3844
(dp3845
g29
I01
sg30
g122
sg32
(imap.components.point
Point
p3846
(dp3847
g35
I17
sg36
I29
sbsba(imap.components.floor
Floor
p3848
(dp3849
g29
I01
sg30
g122
sg32
(imap.components.point
Point
p3850
(dp3851
g35
I17
sg36
I30
sbsba(imap.components.wall
Wall
p3852
(dp3853
g29
I00
sg30
g41
sg32
(imap.components.point
Point
p3854
(dp3855
g35
I17
sg36
I31
sbsba(imap.components.floor
Floor
p3856
(dp3857
g29
I01
sg30
g122
sg32
(imap.components.point
Point
p3858
(dp3859
g35
I17
sg36
I32
sbsba(imap.components.wall
Wall
p3860
(dp3861
g29
I00
sg30
g41
sg32
(imap.components.point
Point
p3862
(dp3863
g35
I17
sg36
I33
sbsba(imap.components.wall
Wall
p3864
(dp3865
g29
I00
sg30
g41
sg32
(imap.components.point
Point
p3866
(dp3867
g35
I17
sg36
I34
sbsba(imap.components.wall
Wall
p3868
(dp3869
g29
I00
sg30
g41
sg32
(imap.components.point
Point
p3870
(dp3871
g35
I17
sg36
I35
sbsba(imap.components.wall
Wall
p3872
(dp3873
g29
I00
sg30
g41
sg32
(imap.components.point
Point
p3874
(dp3875
g35
I17
sg36
I36
sbsba(imap.components.wall
Wall
p3876
(dp3877
g29
I00
sg30
g41
sg32
(imap.components.point
Point
p3878
(dp3879
g35
I17
sg36
I37
sbsba(imap.components.wall
Wall
p3880
(dp3881
g29
I00
sg30
g41
sg32
(imap.components.point
Point
p3882
(dp3883
g35
I17
sg36
I38
sbsba(imap.components.floor
Floor
p3884
(dp3885
g29
I01
sg30
g122
sg32
(imap.components.point
Point
p3886
(dp3887
g35
I17
sg36
I39
sbsba(imap.components.wall
Wall
p3888
(dp3889
g29
I00
sg30
g41
sg32
(imap.components.point
Point
p3890
(dp3891
g35
I17
sg36
I40
sbsbag1554
ag1558
ag1562
ag1566
ag1570
ag1574
ag1578
ag1582
ag1586
ag1590
ag1594
ag1598
ag1602
ag1606
a(imap.components.floor
Floor
p3892
(dp3893
g29
I01
sg30
g122
sg32
(imap.components.point
Point
p3894
(dp3895
g35
I18
sg36
I14
sbsba(imap.components.floor
Floor
p3896
(dp3897
g29
I01
sg30
g122
sg32
(imap.components.point
Point
p3898
(dp3899
g35
I18
sg36
I15
sbsba(imap.components.floor
Floor
p3900
(dp3901
g29
I01
sg30
g122
sg32
(imap.components.point
Point
p3902
(dp3903
g35
I18
sg36
I16
sbsba(imap.components.wall
Wall
p3904
(dp3905
g29
I00
sg30
g41
sg32
(imap.components.point
Point
p3906
(dp3907
g35
I18
sg36
I17
sbsba(imap.components.wall
Wall
p3908
(dp3909
g29
I00
sg30
g41
sg32
(imap.components.point
Point
p3910
(dp3911
g35
I18
sg36
I18
sbsba(imap.components.wall
Wall
p3912
(dp3913
g29
I00
sg30
g41
sg32
(imap.components.point
Point
p3914
(dp3915
g35
I18
sg36
I19
sbsba(imap.components.wall
Wall
p3916
(dp3917
g29
I00
sg30
g41
sg32
(imap.components.point
Point
p3918
(dp3919
g35
I18
sg36
I20
sbsba(imap.components.wall
Wall
p3920
(dp3921
g29
I00
sg30
g41
sg32
(imap.components.point
Point
p3922
(dp3923
g35
I18
sg36
I21
sbsba(imap.components.floor
Floor
p3924
(dp3925
g29
I01
sg30
g122
sg32
(imap.components.point
Point
p3926
(dp3927
g35
I18
sg36
I22
sbsba(imap.components.wall
Wall
p3928
(dp3929
g29
I00
sg30
g41
sg32
(imap.components.point
Point
p3930
(dp3931
g35
I18
sg36
I23
sbsba(imap.components.floor
Floor
p3932
(dp3933
g29
I01
sg30
g122
sg32
(imap.components.point
Point
p3934
(dp3935
g35
I18
sg36
I24
sbsba(imap.components.wall
Wall
p3936
(dp3937
g29
I00
sg30
g41
sg32
(imap.components.point
Point
p3938
(dp3939
g35
I18
sg36
I25
sbsba(imap.components.wall
Wall
p3940
(dp3941
g29
I00
sg30
g41
sg32
(imap.components.point
Point
p3942
(dp3943
g35
I18
sg36
I26
sbsba(imap.components.wall
Wall
p3944
(dp3945
g29
I00
sg30
g41
sg32
(imap.components.point
Point
p3946
(dp3947
g35
I18
sg36
I27
sbsba(imap.components.wall
Wall
p3948
(dp3949
g29
I00
sg30
g41
sg32
(imap.components.point
Point
p3950
(dp3951
g35
I18
sg36
I28
sbsba(imap.components.wall
Wall
p3952
(dp3953
g29
I00
sg30
g41
sg32
(imap.components.point
Point
p3954
(dp3955
g35
I18
sg36
I29
sbsba(imap.components.floor
Floor
p3956
(dp3957
g29
I01
sg30
g122
sg32
(imap.components.point
Point
p3958
(dp3959
g35
I18
sg36
I30
sbsba(imap.components.door
Door
p3960
(dp3961
g29
I01
sg30
g171
sg32
(imap.components.point
Point
p3962
(dp3963
g35
I18
sg36
I31
sbsba(imap.components.floor
Floor
p3964
(dp3965
g29
I01
sg30
g122
sg32
(imap.components.point
Point
p3966
(dp3967
g35
I18
sg36
I32
sbsba(imap.components.wall
Wall
p3968
(dp3969
g29
I00
sg30
g41
sg32
(imap.components.point
Point
p3970
(dp3971
g35
I18
sg36
I33
sbsba(imap.components.floor
Floor
p3972
(dp3973
g29
I01
sg30
g122
sg32
(imap.components.point
Point
p3974
(dp3975
g35
I18
sg36
I34
sbsba(imap.components.floor
Floor
p3976
(dp3977
g29
I01
sg30
g122
sg32
(imap.components.point
Point
p3978
(dp3979
g35
I18
sg36
I35
sbsba(imap.components.floor
Floor
p3980
(dp3981
g29
I01
sg30
g122
sg32
(imap.components.point
Point
p3982
(dp3983
g35
I18
sg36
I36
sbsba(imap.components.floor
Floor
p3984
(dp3985
g29
I01
sg30
g122
sg32
(imap.components.point
Point
p3986
(dp3987
g35
I18
sg36
I37
sbsba(imap.components.floor
Floor
p3988
(dp3989
g29
I01
sg30
g122
sg32
(imap.components.point
Point
p3990
(dp3991
g35
I18
sg36
I38
sbsba(imap.components.floor
Floor
p3992
(dp3993
g29
I01
sg30
g122
sg32
(imap.components.point
Point
p3994
(dp3995
g35
I18
sg36
I39
sbsba(imap.components.wall
Wall
p3996
(dp3997
g29
I00
sg30
g41
sg32
(imap.components.point
Point
p3998
(dp3999
g35
I18
sg36
I40
sbsbag1638
ag1642
ag1646
ag1650
ag1654
ag1658
ag1662
ag1666
ag1670
ag1674
ag1678
ag1682
ag1686
ag1690
a(imap.components.door
Door
p4000
(dp4001
g29
I01
sg30
g171
sg32
(imap.components.point
Point
p4002
(dp4003
g35
I19
sg36
I14
sbsba(imap.components.wall
Wall
p4004
(dp4005
g29
I00
sg30
g41
sg32
(imap.components.point
Point
p4006
(dp4007
g35
I19
sg36
I15
sbsba(imap.components.wall
Wall
p4008
(dp4009
g29
I00
sg30
g41
sg32
(imap.components.point
Point
p4010
(dp4011
g35
I19
sg36
I16
sbsba(imap.components.wall
Wall
p4012
(dp4013
g29
I00
sg30
g41
sg32
(imap.components.point
Point
p4014
(dp4015
g35
I19
sg36
I17
sbsba(imap.components.floor
Floor
p4016
(dp4017
g29
I01
sg30
g122
sg32
(imap.components.point
Point
p4018
(dp4019
g35
I19
sg36
I18
sbsba(imap.components.floor
Floor
p4020
(dp4021
g29
I01
sg30
g122
sg32
(imap.components.point
Point
p4022
(dp4023
g35
I19
sg36
I19
sbsba(imap.components.wall
Wall
p4024
(dp4025
g29
I00
sg30
g41
sg32
(imap.components.point
Point
p4026
(dp4027
g35
I19
sg36
I20
sbsba(imap.components.floor
Floor
p4028
(dp4029
g29
I01
sg30
g122
sg32
(imap.components.point
Point
p4030
(dp4031
g35
I19
sg36
I21
sbsba(imap.components.floor
Floor
p4032
(dp4033
g29
I01
sg30
g122
sg32
(imap.components.point
Point
p4034
(dp4035
g35
I19
sg36
I22
sbsba(imap.components.wall
Wall
p4036
(dp4037
g29
I00
sg30
g41
sg32
(imap.components.point
Point
p4038
(dp4039
g35
I19
sg36
I23
sbsba(imap.components.floor
Floor
p4040
(dp4041
g29
I01
sg30
g122
sg32
(imap.components.point
Point
p4042
(dp4043
g35
I19
sg36
I24
sbsba(imap.components.floor
Floor
p4044
(dp4045
g29
I01
sg30
g122
sg32
(imap.components.point
Point
p4046
(dp4047
g35
I19
sg36
I25
sbsba(imap.components.wall
Wall
p4048
(dp4049
g29
I00
sg30
g41
sg32
(imap.components.point
Point
p4050
(dp4051
g35
I19
sg36
I26
sbsba(imap.components.floor
Floor
p4052
(dp4053
g29
I01
sg30
g122
sg32
(imap.components.point
Point
p4054
(dp4055
g35
I19
sg36
I27
sbsba(imap.components.wall
Wall
p4056
(dp4057
g29
I00
sg30
g41
sg32
(imap.components.point
Point
p4058
(dp4059
g35
I19
sg36
I28
sbsba(imap.components.floor
Floor
p4060
(dp4061
g29
I01
sg30
g122
sg32
(imap.components.point
Point
p4062
(dp4063
g35
I19
sg36
I29
sbsba(imap.components.floor
Floor
p4064
(dp4065
g29
I01
sg30
g122
sg32
(imap.components.point
Point
p4066
(dp4067
g35
I19
sg36
I30
sbsba(imap.components.wall
Wall
p4068
(dp4069
g29
I00
sg30
g41
sg32
(imap.components.point
Point
p4070
(dp4071
g35
I19
sg36
I31
sbsba(imap.components.door
Door
p4072
(dp4073
g29
I01
sg30
g171
sg32
(imap.components.point
Point
p4074
(dp4075
g35
I19
sg36
I32
sbsba(imap.components.wall
Wall
p4076
(dp4077
g29
I00
sg30
g41
sg32
(imap.components.point
Point
p4078
(dp4079
g35
I19
sg36
I33
sbsba(imap.components.wall
Wall
p4080
(dp4081
g29
I00
sg30
g41
sg32
(imap.components.point
Point
p4082
(dp4083
g35
I19
sg36
I34
sbsba(imap.components.wall
Wall
p4084
(dp4085
g29
I00
sg30
g41
sg32
(imap.components.point
Point
p4086
(dp4087
g35
I19
sg36
I35
sbsba(imap.components.wall
Wall
p4088
(dp4089
g29
I00
sg30
g41
sg32
(imap.components.point
Point
p4090
(dp4091
g35
I19
sg36
I36
sbsba(imap.components.wall
Wall
p4092
(dp4093
g29
I00
sg30
g41
sg32
(imap.components.point
Point
p4094
(dp4095
g35
I19
sg36
I37
sbsba(imap.components.wall
Wall
p4096
(dp4097
g29
I00
sg30
g41
sg32
(imap.components.point
Point
p4098
(dp4099
g35
I19
sg36
I38
sbsba(imap.components.wall
Wall
p4100
(dp4101
g29
I00
sg30
g41
sg32
(imap.components.point
Point
p4102
(dp4103
g35
I19
sg36
I39
sbsba(imap.components.wall
Wall
p4104
(dp4105
g29
I00
sg30
g41
sg32
(imap.components.point
Point
p4106
(dp4107
g35
I19
sg36
I40
sbsbag1722
ag1726
ag1730
ag1734
ag1738
ag1742
ag1746
ag1750
ag1754
ag1758
ag1762
ag1766
ag1770
ag1774
a(imap.components.floor
Floor
p4108
(dp4109
g29
I01
sg30
g122
sg32
(imap.components.point
Point
p4110
(dp4111
g35
I20
sg36
I14
sbsba(imap.components.floor
Floor
p4112
(dp4113
g29
I01
sg30
g122
sg32
(imap.components.point
Point
p4114
(dp4115
g35
I20
sg36
I15
sbsba(imap.components.floor
Floor
p4116
(dp4117
g29
I01
sg30
g122
sg32
(imap.components.point
Point
p4118
(dp4119
g35
I20
sg36
I16
sbsba(imap.components.floor
Floor
p4120
(dp4121
g29
I01
sg30
g122
sg32
(imap.components.point
Point
p4122
(dp4123
g35
I20
sg36
I17
sbsba(imap.components.floor
Floor
p4124
(dp4125
g29
I01
sg30
g122
sg32
(imap.components.point
Point
p4126
(dp4127
g35
I20
sg36
I18
sbsba(imap.components.floor
Floor
p4128
(dp4129
g29
I01
sg30
g122
sg32
(imap.components.point
Point
p4130
(dp4131
g35
I20
sg36
I19
sbsba(imap.components.wall
Wall
p4132
(dp4133
g29
I00
sg30
g41
sg32
(imap.components.point
Point
p4134
(dp4135
g35
I20
sg36
I20
sbsba(imap.components.floor
Floor
p4136
(dp4137
g29
I01
sg30
g122
sg32
(imap.components.point
Point
p4138
(dp4139
g35
I20
sg36
I21
sbsba(imap.components.wall
Wall
p4140
(dp4141
g29
I00
sg30
g41
sg32
(imap.components.point
Point
p4142
(dp4143
g35
I20
sg36
I22
sbsba(imap.components.wall
Wall
p4144
(dp4145
g29
I00
sg30
g41
sg32
(imap.components.point
Point
p4146
(dp4147
g35
I20
sg36
I23
sbsba(imap.components.floor
Floor
p4148
(dp4149
g29
I01
sg30
g122
sg32
(imap.components.point
Point
p4150
(dp4151
g35
I20
sg36
I24
sbsba(imap.components.floor
Floor
p4152
(dp4153
g29
I01
sg30
g122
sg32
(imap.components.point
Point
p4154
(dp4155
g35
I20
sg36
I25
sbsba(imap.components.wall
Wall
p4156
(dp4157
g29
I00
sg30
g41
sg32
(imap.components.point
Point
p4158
(dp4159
g35
I20
sg36
I26
sbsba(imap.components.floor
Floor
p4160
(dp4161
g29
I01
sg30
g122
sg32
(imap.components.point
Point
p4162
(dp4163
g35
I20
sg36
I27
sbsba(imap.components.wall
Wall
p4164
(dp4165
g29
I00
sg30
g41
sg32
(imap.components.point
Point
p4166
(dp4167
g35
I20
sg36
I28
sbsba(imap.components.floor
Floor
p4168
(dp4169
g29
I01
sg30
g122
sg32
(imap.components.point
Point
p4170
(dp4171
g35
I20
sg36
I29
sbsba(imap.components.wall
Wall
p4172
(dp4173
g29
I00
sg30
g41
sg32
(imap.components.point
Point
p4174
(dp4175
g35
I20
sg36
I30
sbsba(imap.components.wall
Wall
p4176
(dp4177
g29
I00
sg30
g41
sg32
(imap.components.point
Point
p4178
(dp4179
g35
I20
sg36
I31
sbsba(imap.components.floor
Floor
p4180
(dp4181
g29
I01
sg30
g122
sg32
(imap.components.point
Point
p4182
(dp4183
g35
I20
sg36
I32
sbsba(imap.components.floor
Floor
p4184
(dp4185
g29
I01
sg30
g122
sg32
(imap.components.point
Point
p4186
(dp4187
g35
I20
sg36
I33
sbsba(imap.components.floor
Floor
p4188
(dp4189
g29
I01
sg30
g122
sg32
(imap.components.point
Point
p4190
(dp4191
g35
I20
sg36
I34
sbsba(imap.components.wall
Wall
p4192
(dp4193
g29
I00
sg30
g41
sg32
(imap.components.point
Point
p4194
(dp4195
g35
I20
sg36
I35
sbsba(imap.components.floor
Floor
p4196
(dp4197
g29
I01
sg30
g122
sg32
(imap.components.point
Point
p4198
(dp4199
g35
I20
sg36
I36
sbsba(imap.components.floor
Floor
p4200
(dp4201
g29
I01
sg30
g122
sg32
(imap.components.point
Point
p4202
(dp4203
g35
I20
sg36
I37
sbsba(imap.components.floor
Floor
p4204
(dp4205
g29
I01
sg30
g122
sg32
(imap.components.point
Point
p4206
(dp4207
g35
I20
sg36
I38
sbsba(imap.components.floor
Floor
p4208
(dp4209
g29
I01
sg30
g122
sg32
(imap.components.point
Point
p4210
(dp4211
g35
I20
sg36
I39
sbsba(imap.components.wall
Wall
p4212
(dp4213
g29
I00
sg30
g41
sg32
(imap.components.point
Point
p4214
(dp4215
g35
I20
sg36
I40
sbsbag1806
ag1810
ag1814
ag1818
ag1822
ag1826
ag1830
ag1834
ag1838
ag1842
ag1846
ag1850
ag1854
ag1858
ag1862
ag1866
ag1870
ag1874
ag1878
ag1882
ag1886
a(imap.components.floor
Floor
p4216
(dp4217
g29
I01
sg30
g122
sg32
(imap.components.point
Point
p4218
(dp4219
g35
I21
sg36
I21
sbsba(imap.components.wall
Wall
p4220
(dp4221
g29
I00
sg30
g41
sg32
(imap.components.point
Point
p4222
(dp4223
g35
I21
sg36
I22
sbsba(imap.components.wall
Wall
p4224
(dp4225
g29
I00
sg30
g41
sg32
(imap.components.point
Point
p4226
(dp4227
g35
I21
sg36
I23
sbsba(imap.components.wall
Wall
p4228
(dp4229
g29
I00
sg30
g41
sg32
(imap.components.point
Point
p4230
(dp4231
g35
I21
sg36
I24
sbsba(imap.components.floor
Floor
p4232
(dp4233
g29
I01
sg30
g122
sg32
(imap.components.point
Point
p4234
(dp4235
g35
I21
sg36
I25
sbsba(imap.components.wall
Wall
p4236
(dp4237
g29
I00
sg30
g41
sg32
(imap.components.point
Point
p4238
(dp4239
g35
I21
sg36
I26
sbsba(imap.components.floor
Floor
p4240
(dp4241
g29
I01
sg30
g122
sg32
(imap.components.point
Point
p4242
(dp4243
g35
I21
sg36
I27
sbsba(imap.components.wall
Wall
p4244
(dp4245
g29
I00
sg30
g41
sg32
(imap.components.point
Point
p4246
(dp4247
g35
I21
sg36
I28
sbsba(imap.components.door
Door
p4248
(dp4249
g29
I01
sg30
g171
sg32
(imap.components.point
Point
p4250
(dp4251
g35
I21
sg36
I29
sbsba(imap.components.wall
Wall
p4252
(dp4253
g29
I00
sg30
g41
sg32
(imap.components.point
Point
p4254
(dp4255
g35
I21
sg36
I30
sbsba(imap.components.wall
Wall
p4256
(dp4257
g29
I00
sg30
g41
sg32
(imap.components.point
Point
p4258
(dp4259
g35
I21
sg36
I31
sbsba(imap.components.wall
Wall
p4260
(dp4261
g29
I00
sg30
g41
sg32
(imap.components.point
Point
p4262
(dp4263
g35
I21
sg36
I32
sbsba(imap.components.wall
Wall
p4264
(dp4265
g29
I00
sg30
g41
sg32
(imap.components.point
Point
p4266
(dp4267
g35
I21
sg36
I33
sbsba(imap.components.floor
Floor
p4268
(dp4269
g29
I01
sg30
g122
sg32
(imap.components.point
Point
p4270
(dp4271
g35
I21
sg36
I34
sbsba(imap.components.wall
Wall
p4272
(dp4273
g29
I00
sg30
g41
sg32
(imap.components.point
Point
p4274
(dp4275
g35
I21
sg36
I35
sbsba(imap.components.floor
Floor
p4276
(dp4277
g29
I01
sg30
g122
sg32
(imap.components.point
Point
p4278
(dp4279
g35
I21
sg36
I36
sbsba(imap.components.wall
Wall
p4280
(dp4281
g29
I00
sg30
g41
sg32
(imap.components.point
Point
p4282
(dp4283
g35
I21
sg36
I37
sbsba(imap.components.floor
Floor
p4284
(dp4285
g29
I01
sg30
g122
sg32
(imap.components.point
Point
p4286
(dp4287
g35
I21
sg36
I38
sbsba(imap.components.floor
Floor
p4288
(dp4289
g29
I01
sg30
g122
sg32
(imap.components.point
Point
p4290
(dp4291
g35
I21
sg36
I39
sbsba(imap.components.exit
Exit
p4292
(dp4293
g29
I01
sg30
S'*'
p4294
sg32
(imap.components.point
Point
p4295
(dp4296
g35
I21
sg36
I40
sbsbag1890
ag1894
ag1898
ag1902
ag1906
ag1910
ag1914
ag1918
ag1922
ag1926
ag1930
ag1934
ag1938
ag1942
ag1946
ag1950
ag1954
ag1958
ag1962
ag1966
ag1970
a(imap.components.floor
Floor
p4297
(dp4298
g29
I01
sg30
g122
sg32
(imap.components.point
Point
p4299
(dp4300
g35
I22
sg36
I21
sbsba(imap.components.door
Door
p4301
(dp4302
g29
I01
sg30
g171
sg32
(imap.components.point
Point
p4303
(dp4304
g35
I22
sg36
I22
sbsba(imap.components.floor
Floor
p4305
(dp4306
g29
I01
sg30
g122
sg32
(imap.components.point
Point
p4307
(dp4308
g35
I22
sg36
I23
sbsba(imap.components.floor
Floor
p4309
(dp4310
g29
I01
sg30
g122
sg32
(imap.components.point
Point
p4311
(dp4312
g35
I22
sg36
I24
sbsba(imap.components.floor
Floor
p4313
(dp4314
g29
I01
sg30
g122
sg32
(imap.components.point
Point
p4315
(dp4316
g35
I22
sg36
I25
sbsba(imap.components.wall
Wall
p4317
(dp4318
g29
I00
sg30
g41
sg32
(imap.components.point
Point
p4319
(dp4320
g35
I22
sg36
I26
sbsba(imap.components.floor
Floor
p4321
(dp4322
g29
I01
sg30
g122
sg32
(imap.components.point
Point
p4323
(dp4324
g35
I22
sg36
I27
sbsba(imap.components.floor
Floor
p4325
(dp4326
g29
I01
sg30
g122
sg32
(imap.components.point
Point
p4327
(dp4328
g35
I22
sg36
I28
sbsba(imap.components.floor
Floor
p4329
(dp4330
g29
I01
sg30
g122
sg32
(imap.components.point
Point
p4331
(dp4332
g35
I22
sg36
I29
sbsba(imap.components.floor
Floor
p4333
(dp4334
g29
I01
sg30
g122
sg32
(imap.components.point
Point
p4335
(dp4336
g35
I22
sg36
I30
sbsba(imap.components.floor
Floor
p4337
(dp4338
g29
I01
sg30
g122
sg32
(imap.components.point
Point
p4339
(dp4340
g35
I22
sg36
I31
sbsba(imap.components.floor
Floor
p4341
(dp4342
g29
I01
sg30
g122
sg32
(imap.components.point
Point
p4343
(dp4344
g35
I22
sg36
I32
sbsba(imap.components.wall
Wall
p4345
(dp4346
g29
I00
sg30
g41
sg32
(imap.components.point
Point
p4347
(dp4348
g35
I22
sg36
I33
sbsba(imap.components.floor
Floor
p4349
(dp4350
g29
I01
sg30
g122
sg32
(imap.components.point
Point
p4351
(dp4352
g35
I22
sg36
I34
sbsba(imap.components.door
Door
p4353
(dp4354
g29
I01
sg30
g171
sg32
(imap.components.point
Point
p4355
(dp4356
g35
I22
sg36
I35
sbsba(imap.components.floor
Floor
p4357
(dp4358
g29
I01
sg30
g122
sg32
(imap.components.point
Point
p4359
(dp4360
g35
I22
sg36
I36
sbsba(imap.components.wall
Wall
p4361
(dp4362
g29
I00
sg30
g41
sg32
(imap.components.point
Point
p4363
(dp4364
g35
I22
sg36
I37
sbsba(imap.components.wall
Wall
p4365
(dp4366
g29
I00
sg30
g41
sg32
(imap.components.point
Point
p4367
(dp4368
g35
I22
sg36
I38
sbsba(imap.components.wall
Wall
p4369
(dp4370
g29
I00
sg30
g41
sg32
(imap.components.point
Point
p4371
(dp4372
g35
I22
sg36
I39
sbsba(imap.components.wall
Wall
p4373
(dp4374
g29
I00
sg30
g41
sg32
(imap.components.point
Point
p4375
(dp4376
g35
I22
sg36
I40
sbsbag1974
ag1978
ag1982
ag1986
ag1990
ag1994
ag1998
ag2002
ag2006
ag2010
ag2014
ag2018
ag2022
ag2026
ag2030
ag2034
ag2038
ag2042
ag2046
ag2050
ag2054
a(imap.components.wall
Wall
p4377
(dp4378
g29
I00
sg30
g41
sg32
(imap.components.point
Point
p4379
(dp4380
g35
I23
sg36
I21
sbsba(imap.components.wall
Wall
p4381
(dp4382
g29
I00
sg30
g41
sg32
(imap.components.point
Point
p4383
(dp4384
g35
I23
sg36
I22
sbsba(imap.components.wall
Wall
p4385
(dp4386
g29
I00
sg30
g41
sg32
(imap.components.point
Point
p4387
(dp4388
g35
I23
sg36
I23
sbsba(imap.components.wall
Wall
p4389
(dp4390
g29
I00
sg30
g41
sg32
(imap.components.point
Point
p4391
(dp4392
g35
I23
sg36
I24
sbsba(imap.components.wall
Wall
p4393
(dp4394
g29
I00
sg30
g41
sg32
(imap.components.point
Point
p4395
(dp4396
g35
I23
sg36
I25
sbsba(imap.components.wall
Wall
p4397
(dp4398
g29
I00
sg30
g41
sg32
(imap.components.point
Point
p4399
(dp4400
g35
I23
sg36
I26
sbsba(imap.components.wall
Wall
p4401
(dp4402
g29
I00
sg30
g41
sg32
(imap.components.point
Point
p4403
(dp4404
g35
I23
sg36
I27
sbsba(imap.components.wall
Wall
p4405
(dp4406
g29
I00
sg30
g41
sg32
(imap.components.point
Point
p4407
(dp4408
g35
I23
sg36
I28
sbsba(imap.components.wall
Wall
p4409
(dp4410
g29
I00
sg30
g41
sg32
(imap.components.point
Point
p4411
(dp4412
g35
I23
sg36
I29
sbsba(imap.components.wall
Wall
p4413
(dp4414
g29
I00
sg30
g41
sg32
(imap.components.point
Point
p4415
(dp4416
g35
I23
sg36
I30
sbsba(imap.components.wall
Wall
p4417
(dp4418
g29
I00
sg30
g41
sg32
(imap.components.point
Point
p4419
(dp4420
g35
I23
sg36
I31
sbsba(imap.components.wall
Wall
p4421
(dp4422
g29
I00
sg30
g41
sg32
(imap.components.point
Point
p4423
(dp4424
g35
I23
sg36
I32
sbsba(imap.components.wall
Wall
p4425
(dp4426
g29
I00
sg30
g41
sg32
(imap.components.point
Point
p4427
(dp4428
g35
I23
sg36
I33
sbsba(imap.components.wall
Wall
p4429
(dp4430
g29
I00
sg30
g41
sg32
(imap.components.point
Point
p4431
(dp4432
g35
I23
sg36
I34
sbsba(imap.components.wall
Wall
p4433
(dp4434
g29
I00
sg30
g41
sg32
(imap.components.point
Point
p4435
(dp4436
g35
I23
sg36
I35
sbsba(imap.components.wall
Wall
p4437
(dp4438
g29
I00
sg30
g41
sg32
(imap.components.point
Point
p4439
(dp4440
g35
I23
sg36
I36
sbsba(imap.components.wall
Wall
p4441
(dp4442
g29
I00
sg30
g41
sg32
(imap.components.point
Point
p4443
(dp4444
g35
I23
sg36
I37
sbsba(imap.components.wall
Wall
p4445
(dp4446
g29
I00
sg30
g41
sg32
(imap.components.point
Point
p4447
(dp4448
g35
I23
sg36
I38
sbsba(imap.components.wall
Wall
p4449
(dp4450
g29
I00
sg30
g41
sg32
(imap.components.point
Point
p4451
(dp4452
g35
I23
sg36
I39
sbsba(imap.components.wall
Wall
p4453
(dp4454
g29
I00
sg30
g41
sg32
(imap.components.point
Point
p4455
(dp4456
g35
I23
sg36
I40
sbsbasbsS'_name'
p4457
g20
sbsS'prison'
p4458
(igame
Game
p4459
(dp4460
g23
(igame_map
GameMap
p4461
(dp4462
g26
(imap.components.robot
Robot
p4463
(dp4464
g29
I00
sg30
S'@'
p4465
sg32
(imap.components.point
Point
p4466
(dp4467
g35
I16
sg36
I1
sbsbsg37
(lp4468
(imap.components.wall
Wall
p4469
(dp4470
g29
I00
sg30
S'O'
p4471
sg32
(imap.components.point
Point
p4472
(dp4473
g35
I0
sg36
I0
sbsba(imap.components.wall
Wall
p4474
(dp4475
g29
I00
sg30
g4471
sg32
(imap.components.point
Point
p4476
(dp4477
g35
I0
sg36
I1
sbsba(imap.components.wall
Wall
p4478
(dp4479
g29
I00
sg30
g4471
sg32
(imap.components.point
Point
p4480
(dp4481
g35
I0
sg36
I2
sbsba(imap.components.wall
Wall
p4482
(dp4483
g29
I00
sg30
g4471
sg32
(imap.components.point
Point
p4484
(dp4485
g35
I1
sg36
I0
sbsba(imap.components.floor
Floor
p4486
(dp4487
g29
I01
sg30
S' '
p4488
sg32
(imap.components.point
Point
p4489
(dp4490
g35
I1
sg36
I1
sbsba(imap.components.wall
Wall
p4491
(dp4492
g29
I00
sg30
g4471
sg32
(imap.components.point
Point
p4493
(dp4494
g35
I1
sg36
I2
sbsba(imap.components.wall
Wall
p4495
(dp4496
g29
I00
sg30
g4471
sg32
(imap.components.point
Point
p4497
(dp4498
g35
I2
sg36
I0
sbsba(imap.components.door
Door
p4499
(dp4500
g29
I01
sg30
S'.'
p4501
sg32
(imap.components.point
Point
p4502
(dp4503
g35
I2
sg36
I1
sbsba(imap.components.wall
Wall
p4504
(dp4505
g29
I00
sg30
g4471
sg32
(imap.components.point
Point
p4506
(dp4507
g35
I2
sg36
I2
sbsba(imap.components.wall
Wall
p4508
(dp4509
g29
I00
sg30
g4471
sg32
(imap.components.point
Point
p4510
(dp4511
g35
I3
sg36
I0
sbsba(imap.components.floor
Floor
p4512
(dp4513
g29
I01
sg30
g4488
sg32
(imap.components.point
Point
p4514
(dp4515
g35
I3
sg36
I1
sbsba(imap.components.wall
Wall
p4516
(dp4517
g29
I00
sg30
g4471
sg32
(imap.components.point
Point
p4518
(dp4519
g35
I3
sg36
I2
sbsba(imap.components.wall
Wall
p4520
(dp4521
g29
I00
sg30
g4471
sg32
(imap.components.point
Point
p4522
(dp4523
g35
I4
sg36
I0
sbsba(imap.components.door
Door
p4524
(dp4525
g29
I01
sg30
g4501
sg32
(imap.components.point
Point
p4526
(dp4527
g35
I4
sg36
I1
sbsba(imap.components.wall
Wall
p4528
(dp4529
g29
I00
sg30
g4471
sg32
(imap.components.point
Point
p4530
(dp4531
g35
I4
sg36
I2
sbsba(imap.components.wall
Wall
p4532
(dp4533
g29
I00
sg30
g4471
sg32
(imap.components.point
Point
p4534
(dp4535
g35
I5
sg36
I0
sbsba(imap.components.floor
Floor
p4536
(dp4537
g29
I01
sg30
g4488
sg32
(imap.components.point
Point
p4538
(dp4539
g35
I5
sg36
I1
sbsba(imap.components.wall
Wall
p4540
(dp4541
g29
I00
sg30
g4471
sg32
(imap.components.point
Point
p4542
(dp4543
g35
I5
sg36
I2
sbsba(imap.components.wall
Wall
p4544
(dp4545
g29
I00
sg30
g4471
sg32
(imap.components.point
Point
p4546
(dp4547
g35
I6
sg36
I0
sbsba(imap.components.floor
Floor
p4548
(dp4549
g29
I01
sg30
g4488
sg32
(imap.components.point
Point
p4550
(dp4551
g35
I6
sg36
I1
sbsba(imap.components.wall
Wall
p4552
(dp4553
g29
I00
sg30
g4471
sg32
(imap.components.point
Point
p4554
(dp4555
g35
I6
sg36
I2
sbsba(imap.components.wall
Wall
p4556
(dp4557
g29
I00
sg30
g4471
sg32
(imap.components.point
Point
p4558
(dp4559
g35
I7
sg36
I0
sbsba(imap.components.floor
Floor
p4560
(dp4561
g29
I01
sg30
g4488
sg32
(imap.components.point
Point
p4562
(dp4563
g35
I7
sg36
I1
sbsba(imap.components.wall
Wall
p4564
(dp4565
g29
I00
sg30
g4471
sg32
(imap.components.point
Point
p4566
(dp4567
g35
I7
sg36
I2
sbsba(imap.components.wall
Wall
p4568
(dp4569
g29
I00
sg30
g4471
sg32
(imap.components.point
Point
p4570
(dp4571
g35
I8
sg36
I0
sbsba(imap.components.door
Door
p4572
(dp4573
g29
I01
sg30
g4501
sg32
(imap.components.point
Point
p4574
(dp4575
g35
I8
sg36
I1
sbsba(imap.components.wall
Wall
p4576
(dp4577
g29
I00
sg30
g4471
sg32
(imap.components.point
Point
p4578
(dp4579
g35
I8
sg36
I2
sbsba(imap.components.wall
Wall
p4580
(dp4581
g29
I00
sg30
g4471
sg32
(imap.components.point
Point
p4582
(dp4583
g35
I9
sg36
I0
sbsba(imap.components.floor
Floor
p4584
(dp4585
g29
I01
sg30
g4488
sg32
(imap.components.point
Point
p4586
(dp4587
g35
I9
sg36
I1
sbsba(imap.components.wall
Wall
p4588
(dp4589
g29
I00
sg30
g4471
sg32
(imap.components.point
Point
p4590
(dp4591
g35
I9
sg36
I2
sbsba(imap.components.wall
Wall
p4592
(dp4593
g29
I00
sg30
g4471
sg32
(imap.components.point
Point
p4594
(dp4595
g35
I10
sg36
I0
sbsba(imap.components.floor
Floor
p4596
(dp4597
g29
I01
sg30
g4488
sg32
(imap.components.point
Point
p4598
(dp4599
g35
I10
sg36
I1
sbsba(imap.components.wall
Wall
p4600
(dp4601
g29
I00
sg30
g4471
sg32
(imap.components.point
Point
p4602
(dp4603
g35
I10
sg36
I2
sbsba(imap.components.wall
Wall
p4604
(dp4605
g29
I00
sg30
g4471
sg32
(imap.components.point
Point
p4606
(dp4607
g35
I11
sg36
I0
sbsba(imap.components.floor
Floor
p4608
(dp4609
g29
I01
sg30
g4488
sg32
(imap.components.point
Point
p4610
(dp4611
g35
I11
sg36
I1
sbsba(imap.components.wall
Wall
p4612
(dp4613
g29
I00
sg30
g4471
sg32
(imap.components.point
Point
p4614
(dp4615
g35
I11
sg36
I2
sbsba(imap.components.wall
Wall
p4616
(dp4617
g29
I00
sg30
g4471
sg32
(imap.components.point
Point
p4618
(dp4619
g35
I12
sg36
I0
sbsba(imap.components.door
Door
p4620
(dp4621
g29
I01
sg30
g4501
sg32
(imap.components.point
Point
p4622
(dp4623
g35
I12
sg36
I1
sbsba(imap.components.wall
Wall
p4624
(dp4625
g29
I00
sg30
g4471
sg32
(imap.components.point
Point
p4626
(dp4627
g35
I12
sg36
I2
sbsba(imap.components.wall
Wall
p4628
(dp4629
g29
I00
sg30
g4471
sg32
(imap.components.point
Point
p4630
(dp4631
g35
I13
sg36
I0
sbsba(imap.components.floor
Floor
p4632
(dp4633
g29
I01
sg30
g4488
sg32
(imap.components.point
Point
p4634
(dp4635
g35
I13
sg36
I1
sbsba(imap.components.wall
Wall
p4636
(dp4637
g29
I00
sg30
g4471
sg32
(imap.components.point
Point
p4638
(dp4639
g35
I13
sg36
I2
sbsba(imap.components.wall
Wall
p4640
(dp4641
g29
I00
sg30
g4471
sg32
(imap.components.point
Point
p4642
(dp4643
g35
I14
sg36
I0
sbsba(imap.components.floor
Floor
p4644
(dp4645
g29
I01
sg30
g4488
sg32
(imap.components.point
Point
p4646
(dp4647
g35
I14
sg36
I1
sbsba(imap.components.wall
Wall
p4648
(dp4649
g29
I00
sg30
g4471
sg32
(imap.components.point
Point
p4650
(dp4651
g35
I14
sg36
I2
sbsba(imap.components.wall
Wall
p4652
(dp4653
g29
I00
sg30
g4471
sg32
(imap.components.point
Point
p4654
(dp4655
g35
I15
sg36
I0
sbsba(imap.components.floor
Floor
p4656
(dp4657
g29
I01
sg30
g4488
sg32
(imap.components.point
Point
p4658
(dp4659
g35
I15
sg36
I1
sbsba(imap.components.wall
Wall
p4660
(dp4661
g29
I00
sg30
g4471
sg32
(imap.components.point
Point
p4662
(dp4663
g35
I15
sg36
I2
sbsba(imap.components.wall
Wall
p4664
(dp4665
g29
I00
sg30
g4471
sg32
(imap.components.point
Point
p4666
(dp4667
g35
I16
sg36
I0
sbsba(imap.components.floor
Floor
p4668
(dp4669
g29
I01
sg30
g4488
sg32
(imap.components.point
Point
p4670
(dp4671
g35
I16
sg36
I1
sbsba(imap.components.wall
Wall
p4672
(dp4673
g29
I00
sg30
g4471
sg32
(imap.components.point
Point
p4674
(dp4675
g35
I16
sg36
I2
sbsba(imap.components.wall
Wall
p4676
(dp4677
g29
I00
sg30
g4471
sg32
(imap.components.point
Point
p4678
(dp4679
g35
I17
sg36
I0
sbsba(imap.components.door
Door
p4680
(dp4681
g29
I01
sg30
g4501
sg32
(imap.components.point
Point
p4682
(dp4683
g35
I17
sg36
I1
sbsba(imap.components.wall
Wall
p4684
(dp4685
g29
I00
sg30
g4471
sg32
(imap.components.point
Point
p4686
(dp4687
g35
I17
sg36
I2
sbsbasbsg2058
I0
sg37
(igame_map
GameMap
p4688
(dp4689
g26
(imap.components.robot
Robot
p4690
(dp4691
g29
I00
sg30
g4465
sg32
g4466
sbsg37
(lp4692
g4469
ag4474
ag4478
a(imap.components.wall
Wall
p4693
(dp4694
g29
I00
sg30
g4471
sg32
(imap.components.point
Point
p4695
(dp4696
g35
I0
sg36
I3
sbsba(imap.components.wall
Wall
p4697
(dp4698
g29
I00
sg30
g4471
sg32
(imap.components.point
Point
p4699
(dp4700
g35
I0
sg36
I4
sbsba(imap.components.wall
Wall
p4701
(dp4702
g29
I00
sg30
g4471
sg32
(imap.components.point
Point
p4703
(dp4704
g35
I0
sg36
I5
sbsba(imap.components.wall
Wall
p4705
(dp4706
g29
I00
sg30
g4471
sg32
(imap.components.point
Point
p4707
(dp4708
g35
I0
sg36
I6
sbsba(imap.components.wall
Wall
p4709
(dp4710
g29
I00
sg30
g4471
sg32
(imap.components.point
Point
p4711
(dp4712
g35
I0
sg36
I7
sbsba(imap.components.wall
Wall
p4713
(dp4714
g29
I00
sg30
g4471
sg32
(imap.components.point
Point
p4715
(dp4716
g35
I0
sg36
I8
sbsba(imap.components.wall
Wall
p4717
(dp4718
g29
I00
sg30
g4471
sg32
(imap.components.point
Point
p4719
(dp4720
g35
I0
sg36
I9
sbsba(imap.components.wall
Wall
p4721
(dp4722
g29
I00
sg30
g4471
sg32
(imap.components.point
Point
p4723
(dp4724
g35
I0
sg36
I10
sbsba(imap.components.wall
Wall
p4725
(dp4726
g29
I00
sg30
g4471
sg32
(imap.components.point
Point
p4727
(dp4728
g35
I0
sg36
I11
sbsba(imap.components.wall
Wall
p4729
(dp4730
g29
I00
sg30
g4471
sg32
(imap.components.point
Point
p4731
(dp4732
g35
I0
sg36
I12
sbsba(imap.components.wall
Wall
p4733
(dp4734
g29
I00
sg30
g4471
sg32
(imap.components.point
Point
p4735
(dp4736
g35
I0
sg36
I13
sbsba(imap.components.wall
Wall
p4737
(dp4738
g29
I00
sg30
g4471
sg32
(imap.components.point
Point
p4739
(dp4740
g35
I0
sg36
I14
sbsba(imap.components.wall
Wall
p4741
(dp4742
g29
I00
sg30
g4471
sg32
(imap.components.point
Point
p4743
(dp4744
g35
I0
sg36
I15
sbsba(imap.components.wall
Wall
p4745
(dp4746
g29
I00
sg30
g4471
sg32
(imap.components.point
Point
p4747
(dp4748
g35
I0
sg36
I16
sbsba(imap.components.wall
Wall
p4749
(dp4750
g29
I00
sg30
g4471
sg32
(imap.components.point
Point
p4751
(dp4752
g35
I0
sg36
I17
sbsba(imap.components.wall
Wall
p4753
(dp4754
g29
I00
sg30
g4471
sg32
(imap.components.point
Point
p4755
(dp4756
g35
I0
sg36
I18
sbsba(imap.components.wall
Wall
p4757
(dp4758
g29
I00
sg30
g4471
sg32
(imap.components.point
Point
p4759
(dp4760
g35
I0
sg36
I19
sbsbag4482
ag4486
ag4491
a(imap.components.floor
Floor
p4761
(dp4762
g29
I01
sg30
g4488
sg32
(imap.components.point
Point
p4763
(dp4764
g35
I1
sg36
I3
sbsba(imap.components.door
Door
p4765
(dp4766
g29
I01
sg30
g4501
sg32
(imap.components.point
Point
p4767
(dp4768
g35
I1
sg36
I4
sbsba(imap.components.floor
Floor
p4769
(dp4770
g29
I01
sg30
g4488
sg32
(imap.components.point
Point
p4771
(dp4772
g35
I1
sg36
I5
sbsba(imap.components.wall
Wall
p4773
(dp4774
g29
I00
sg30
g4471
sg32
(imap.components.point
Point
p4775
(dp4776
g35
I1
sg36
I6
sbsba(imap.components.floor
Floor
p4777
(dp4778
g29
I01
sg30
g4488
sg32
(imap.components.point
Point
p4779
(dp4780
g35
I1
sg36
I7
sbsba(imap.components.floor
Floor
p4781
(dp4782
g29
I01
sg30
g4488
sg32
(imap.components.point
Point
p4783
(dp4784
g35
I1
sg36
I8
sbsba(imap.components.floor
Floor
p4785
(dp4786
g29
I01
sg30
g4488
sg32
(imap.components.point
Point
p4787
(dp4788
g35
I1
sg36
I9
sbsba(imap.components.floor
Floor
p4789
(dp4790
g29
I01
sg30
g4488
sg32
(imap.components.point
Point
p4791
(dp4792
g35
I1
sg36
I10
sbsba(imap.components.wall
Wall
p4793
(dp4794
g29
I00
sg30
g4471
sg32
(imap.components.point
Point
p4795
(dp4796
g35
I1
sg36
I11
sbsba(imap.components.floor
Floor
p4797
(dp4798
g29
I01
sg30
g4488
sg32
(imap.components.point
Point
p4799
(dp4800
g35
I1
sg36
I12
sbsba(imap.components.door
Door
p4801
(dp4802
g29
I01
sg30
g4501
sg32
(imap.components.point
Point
p4803
(dp4804
g35
I1
sg36
I13
sbsba(imap.components.floor
Floor
p4805
(dp4806
g29
I01
sg30
g4488
sg32
(imap.components.point
Point
p4807
(dp4808
g35
I1
sg36
I14
sbsba(imap.components.floor
Floor
p4809
(dp4810
g29
I01
sg30
g4488
sg32
(imap.components.point
Point
p4811
(dp4812
g35
I1
sg36
I15
sbsba(imap.components.floor
Floor
p4813
(dp4814
g29
I01
sg30
g4488
sg32
(imap.components.point
Point
p4815
(dp4816
g35
I1
sg36
I16
sbsba(imap.components.floor
Floor
p4817
(dp4818
g29
I01
sg30
g4488
sg32
(imap.components.point
Point
p4819
(dp4820
g35
I1
sg36
I17
sbsba(imap.components.floor
Floor
p4821
(dp4822
g29
I01
sg30
g4488
sg32
(imap.components.point
Point
p4823
(dp4824
g35
I1
sg36
I18
sbsba(imap.components.wall
Wall
p4825
(dp4826
g29
I00
sg30
g4471
sg32
(imap.components.point
Point
p4827
(dp4828
g35
I1
sg36
I19
sbsbag4495
ag4499
ag4504
a(imap.components.floor
Floor
p4829
(dp4830
g29
I01
sg30
g4488
sg32
(imap.components.point
Point
p4831
(dp4832
g35
I2
sg36
I3
sbsba(imap.components.wall
Wall
p4833
(dp4834
g29
I00
sg30
g4471
sg32
(imap.components.point
Point
p4835
(dp4836
g35
I2
sg36
I4
sbsba(imap.components.floor
Floor
p4837
(dp4838
g29
I01
sg30
g4488
sg32
(imap.components.point
Point
p4839
(dp4840
g35
I2
sg36
I5
sbsba(imap.components.wall
Wall
p4841
(dp4842
g29
I00
sg30
g4471
sg32
(imap.components.point
Point
p4843
(dp4844
g35
I2
sg36
I6
sbsba(imap.components.floor
Floor
p4845
(dp4846
g29
I01
sg30
g4488
sg32
(imap.components.point
Point
p4847
(dp4848
g35
I2
sg36
I7
sbsba(imap.components.floor
Floor
p4849
(dp4850
g29
I01
sg30
g4488
sg32
(imap.components.point
Point
p4851
(dp4852
g35
I2
sg36
I8
sbsba(imap.components.floor
Floor
p4853
(dp4854
g29
I01
sg30
g4488
sg32
(imap.components.point
Point
p4855
(dp4856
g35
I2
sg36
I9
sbsba(imap.components.floor
Floor
p4857
(dp4858
g29
I01
sg30
g4488
sg32
(imap.components.point
Point
p4859
(dp4860
g35
I2
sg36
I10
sbsba(imap.components.wall
Wall
p4861
(dp4862
g29
I00
sg30
g4471
sg32
(imap.components.point
Point
p4863
(dp4864
g35
I2
sg36
I11
sbsba(imap.components.floor
Floor
p4865
(dp4866
g29
I01
sg30
g4488
sg32
(imap.components.point
Point
p4867
(dp4868
g35
I2
sg36
I12
sbsba(imap.components.wall
Wall
p4869
(dp4870
g29
I00
sg30
g4471
sg32
(imap.components.point
Point
p4871
(dp4872
g35
I2
sg36
I13
sbsba(imap.components.floor
Floor
p4873
(dp4874
g29
I01
sg30
g4488
sg32
(imap.components.point
Point
p4875
(dp4876
g35
I2
sg36
I14
sbsba(imap.components.floor
Floor
p4877
(dp4878
g29
I01
sg30
g4488
sg32
(imap.components.point
Point
p4879
(dp4880
g35
I2
sg36
I15
sbsba(imap.components.floor
Floor
p4881
(dp4882
g29
I01
sg30
g4488
sg32
(imap.components.point
Point
p4883
(dp4884
g35
I2
sg36
I16
sbsba(imap.components.floor
Floor
p4885
(dp4886
g29
I01
sg30
g4488
sg32
(imap.components.point
Point
p4887
(dp4888
g35
I2
sg36
I17
sbsba(imap.components.floor
Floor
p4889
(dp4890
g29
I01
sg30
g4488
sg32
(imap.components.point
Point
p4891
(dp4892
g35
I2
sg36
I18
sbsba(imap.components.wall
Wall
p4893
(dp4894
g29
I00
sg30
g4471
sg32
(imap.components.point
Point
p4895
(dp4896
g35
I2
sg36
I19
sbsbag4508
ag4512
ag4516
a(imap.components.floor
Floor
p4897
(dp4898
g29
I01
sg30
g4488
sg32
(imap.components.point
Point
p4899
(dp4900
g35
I3
sg36
I3
sbsba(imap.components.wall
Wall
p4901
(dp4902
g29
I00
sg30
g4471
sg32
(imap.components.point
Point
p4903
(dp4904
g35
I3
sg36
I4
sbsba(imap.components.floor
Floor
p4905
(dp4906
g29
I01
sg30
g4488
sg32
(imap.components.point
Point
p4907
(dp4908
g35
I3
sg36
I5
sbsba(imap.components.wall
Wall
p4909
(dp4910
g29
I00
sg30
g4471
sg32
(imap.components.point
Point
p4911
(dp4912
g35
I3
sg36
I6
sbsba(imap.components.floor
Floor
p4913
(dp4914
g29
I01
sg30
g4488
sg32
(imap.components.point
Point
p4915
(dp4916
g35
I3
sg36
I7
sbsba(imap.components.floor
Floor
p4917
(dp4918
g29
I01
sg30
g4488
sg32
(imap.components.point
Point
p4919
(dp4920
g35
I3
sg36
I8
sbsba(imap.components.floor
Floor
p4921
(dp4922
g29
I01
sg30
g4488
sg32
(imap.components.point
Point
p4923
(dp4924
g35
I3
sg36
I9
sbsba(imap.components.floor
Floor
p4925
(dp4926
g29
I01
sg30
g4488
sg32
(imap.components.point
Point
p4927
(dp4928
g35
I3
sg36
I10
sbsba(imap.components.wall
Wall
p4929
(dp4930
g29
I00
sg30
g4471
sg32
(imap.components.point
Point
p4931
(dp4932
g35
I3
sg36
I11
sbsba(imap.components.floor
Floor
p4933
(dp4934
g29
I01
sg30
g4488
sg32
(imap.components.point
Point
p4935
(dp4936
g35
I3
sg36
I12
sbsba(imap.components.wall
Wall
p4937
(dp4938
g29
I00
sg30
g4471
sg32
(imap.components.point
Point
p4939
(dp4940
g35
I3
sg36
I13
sbsba(imap.components.floor
Floor
p4941
(dp4942
g29
I01
sg30
g4488
sg32
(imap.components.point
Point
p4943
(dp4944
g35
I3
sg36
I14
sbsba(imap.components.floor
Floor
p4945
(dp4946
g29
I01
sg30
g4488
sg32
(imap.components.point
Point
p4947
(dp4948
g35
I3
sg36
I15
sbsba(imap.components.floor
Floor
p4949
(dp4950
g29
I01
sg30
g4488
sg32
(imap.components.point
Point
p4951
(dp4952
g35
I3
sg36
I16
sbsba(imap.components.floor
Floor
p4953
(dp4954
g29
I01
sg30
g4488
sg32
(imap.components.point
Point
p4955
(dp4956
g35
I3
sg36
I17
sbsba(imap.components.floor
Floor
p4957
(dp4958
g29
I01
sg30
g4488
sg32
(imap.components.point
Point
p4959
(dp4960
g35
I3
sg36
I18
sbsba(imap.components.wall
Wall
p4961
(dp4962
g29
I00
sg30
g4471
sg32
(imap.components.point
Point
p4963
(dp4964
g35
I3
sg36
I19
sbsbag4520
ag4524
ag4528
a(imap.components.floor
Floor
p4965
(dp4966
g29
I01
sg30
g4488
sg32
(imap.components.point
Point
p4967
(dp4968
g35
I4
sg36
I3
sbsba(imap.components.wall
Wall
p4969
(dp4970
g29
I00
sg30
g4471
sg32
(imap.components.point
Point
p4971
(dp4972
g35
I4
sg36
I4
sbsba(imap.components.floor
Floor
p4973
(dp4974
g29
I01
sg30
g4488
sg32
(imap.components.point
Point
p4975
(dp4976
g35
I4
sg36
I5
sbsba(imap.components.door
Door
p4977
(dp4978
g29
I01
sg30
g4501
sg32
(imap.components.point
Point
p4979
(dp4980
g35
I4
sg36
I6
sbsba(imap.components.floor
Floor
p4981
(dp4982
g29
I01
sg30
g4488
sg32
(imap.components.point
Point
p4983
(dp4984
g35
I4
sg36
I7
sbsba(imap.components.floor
Floor
p4985
(dp4986
g29
I01
sg30
g4488
sg32
(imap.components.point
Point
p4987
(dp4988
g35
I4
sg36
I8
sbsba(imap.components.floor
Floor
p4989
(dp4990
g29
I01
sg30
g4488
sg32
(imap.components.point
Point
p4991
(dp4992
g35
I4
sg36
I9
sbsba(imap.components.floor
Floor
p4993
(dp4994
g29
I01
sg30
g4488
sg32
(imap.components.point
Point
p4995
(dp4996
g35
I4
sg36
I10
sbsba(imap.components.wall
Wall
p4997
(dp4998
g29
I00
sg30
g4471
sg32
(imap.components.point
Point
p4999
(dp5000
g35
I4
sg36
I11
sbsba(imap.components.floor
Floor
p5001
(dp5002
g29
I01
sg30
g4488
sg32
(imap.components.point
Point
p5003
(dp5004
g35
I4
sg36
I12
sbsba(imap.components.wall
Wall
p5005
(dp5006
g29
I00
sg30
g4471
sg32
(imap.components.point
Point
p5007
(dp5008
g35
I4
sg36
I13
sbsba(imap.components.floor
Floor
p5009
(dp5010
g29
I01
sg30
g4488
sg32
(imap.components.point
Point
p5011
(dp5012
g35
I4
sg36
I14
sbsba(imap.components.floor
Floor
p5013
(dp5014
g29
I01
sg30
g4488
sg32
(imap.components.point
Point
p5015
(dp5016
g35
I4
sg36
I15
sbsba(imap.components.floor
Floor
p5017
(dp5018
g29
I01
sg30
g4488
sg32
(imap.components.point
Point
p5019
(dp5020
g35
I4
sg36
I16
sbsba(imap.components.floor
Floor
p5021
(dp5022
g29
I01
sg30
g4488
sg32
(imap.components.point
Point
p5023
(dp5024
g35
I4
sg36
I17
sbsba(imap.components.floor
Floor
p5025
(dp5026
g29
I01
sg30
g4488
sg32
(imap.components.point
Point
p5027
(dp5028
g35
I4
sg36
I18
sbsba(imap.components.wall
Wall
p5029
(dp5030
g29
I00
sg30
g4471
sg32
(imap.components.point
Point
p5031
(dp5032
g35
I4
sg36
I19
sbsbag4532
ag4536
ag4540
a(imap.components.floor
Floor
p5033
(dp5034
g29
I01
sg30
g4488
sg32
(imap.components.point
Point
p5035
(dp5036
g35
I5
sg36
I3
sbsba(imap.components.wall
Wall
p5037
(dp5038
g29
I00
sg30
g4471
sg32
(imap.components.point
Point
p5039
(dp5040
g35
I5
sg36
I4
sbsba(imap.components.floor
Floor
p5041
(dp5042
g29
I01
sg30
g4488
sg32
(imap.components.point
Point
p5043
(dp5044
g35
I5
sg36
I5
sbsba(imap.components.wall
Wall
p5045
(dp5046
g29
I00
sg30
g4471
sg32
(imap.components.point
Point
p5047
(dp5048
g35
I5
sg36
I6
sbsba(imap.components.wall
Wall
p5049
(dp5050
g29
I00
sg30
g4471
sg32
(imap.components.point
Point
p5051
(dp5052
g35
I5
sg36
I7
sbsba(imap.components.wall
Wall
p5053
(dp5054
g29
I00
sg30
g4471
sg32
(imap.components.point
Point
p5055
(dp5056
g35
I5
sg36
I8
sbsba(imap.components.wall
Wall
p5057
(dp5058
g29
I00
sg30
g4471
sg32
(imap.components.point
Point
p5059
(dp5060
g35
I5
sg36
I9
sbsba(imap.components.wall
Wall
p5061
(dp5062
g29
I00
sg30
g4471
sg32
(imap.components.point
Point
p5063
(dp5064
g35
I5
sg36
I10
sbsba(imap.components.wall
Wall
p5065
(dp5066
g29
I00
sg30
g4471
sg32
(imap.components.point
Point
p5067
(dp5068
g35
I5
sg36
I11
sbsba(imap.components.floor
Floor
p5069
(dp5070
g29
I01
sg30
g4488
sg32
(imap.components.point
Point
p5071
(dp5072
g35
I5
sg36
I12
sbsba(imap.components.wall
Wall
p5073
(dp5074
g29
I00
sg30
g4471
sg32
(imap.components.point
Point
p5075
(dp5076
g35
I5
sg36
I13
sbsba(imap.components.floor
Floor
p5077
(dp5078
g29
I01
sg30
g4488
sg32
(imap.components.point
Point
p5079
(dp5080
g35
I5
sg36
I14
sbsba(imap.components.floor
Floor
p5081
(dp5082
g29
I01
sg30
g4488
sg32
(imap.components.point
Point
p5083
(dp5084
g35
I5
sg36
I15
sbsba(imap.components.floor
Floor
p5085
(dp5086
g29
I01
sg30
g4488
sg32
(imap.components.point
Point
p5087
(dp5088
g35
I5
sg36
I16
sbsba(imap.components.floor
Floor
p5089
(dp5090
g29
I01
sg30
g4488
sg32
(imap.components.point
Point
p5091
(dp5092
g35
I5
sg36
I17
sbsba(imap.components.floor
Floor
p5093
(dp5094
g29
I01
sg30
g4488
sg32
(imap.components.point
Point
p5095
(dp5096
g35
I5
sg36
I18
sbsba(imap.components.wall
Wall
p5097
(dp5098
g29
I00
sg30
g4471
sg32
(imap.components.point
Point
p5099
(dp5100
g35
I5
sg36
I19
sbsbag4544
ag4548
ag4552
a(imap.components.floor
Floor
p5101
(dp5102
g29
I01
sg30
g4488
sg32
(imap.components.point
Point
p5103
(dp5104
g35
I6
sg36
I3
sbsba(imap.components.wall
Wall
p5105
(dp5106
g29
I00
sg30
g4471
sg32
(imap.components.point
Point
p5107
(dp5108
g35
I6
sg36
I4
sbsba(imap.components.floor
Floor
p5109
(dp5110
g29
I01
sg30
g4488
sg32
(imap.components.point
Point
p5111
(dp5112
g35
I6
sg36
I5
sbsba(imap.components.floor
Floor
p5113
(dp5114
g29
I01
sg30
g4488
sg32
(imap.components.point
Point
p5115
(dp5116
g35
I6
sg36
I6
sbsba(imap.components.floor
Floor
p5117
(dp5118
g29
I01
sg30
g4488
sg32
(imap.components.point
Point
p5119
(dp5120
g35
I6
sg36
I7
sbsba(imap.components.floor
Floor
p5121
(dp5122
g29
I01
sg30
g4488
sg32
(imap.components.point
Point
p5123
(dp5124
g35
I6
sg36
I8
sbsba(imap.components.floor
Floor
p5125
(dp5126
g29
I01
sg30
g4488
sg32
(imap.components.point
Point
p5127
(dp5128
g35
I6
sg36
I9
sbsba(imap.components.floor
Floor
p5129
(dp5130
g29
I01
sg30
g4488
sg32
(imap.components.point
Point
p5131
(dp5132
g35
I6
sg36
I10
sbsba(imap.components.floor
Floor
p5133
(dp5134
g29
I01
sg30
g4488
sg32
(imap.components.point
Point
p5135
(dp5136
g35
I6
sg36
I11
sbsba(imap.components.floor
Floor
p5137
(dp5138
g29
I01
sg30
g4488
sg32
(imap.components.point
Point
p5139
(dp5140
g35
I6
sg36
I12
sbsba(imap.components.wall
Wall
p5141
(dp5142
g29
I00
sg30
g4471
sg32
(imap.components.point
Point
p5143
(dp5144
g35
I6
sg36
I13
sbsba(imap.components.floor
Floor
p5145
(dp5146
g29
I01
sg30
g4488
sg32
(imap.components.point
Point
p5147
(dp5148
g35
I6
sg36
I14
sbsba(imap.components.floor
Floor
p5149
(dp5150
g29
I01
sg30
g4488
sg32
(imap.components.point
Point
p5151
(dp5152
g35
I6
sg36
I15
sbsba(imap.components.floor
Floor
p5153
(dp5154
g29
I01
sg30
g4488
sg32
(imap.components.point
Point
p5155
(dp5156
g35
I6
sg36
I16
sbsba(imap.components.floor
Floor
p5157
(dp5158
g29
I01
sg30
g4488
sg32
(imap.components.point
Point
p5159
(dp5160
g35
I6
sg36
I17
sbsba(imap.components.floor
Floor
p5161
(dp5162
g29
I01
sg30
g4488
sg32
(imap.components.point
Point
p5163
(dp5164
g35
I6
sg36
I18
sbsba(imap.components.wall
Wall
p5165
(dp5166
g29
I00
sg30
g4471
sg32
(imap.components.point
Point
p5167
(dp5168
g35
I6
sg36
I19
sbsbag4556
ag4560
ag4564
a(imap.components.floor
Floor
p5169
(dp5170
g29
I01
sg30
g4488
sg32
(imap.components.point
Point
p5171
(dp5172
g35
I7
sg36
I3
sbsba(imap.components.wall
Wall
p5173
(dp5174
g29
I00
sg30
g4471
sg32
(imap.components.point
Point
p5175
(dp5176
g35
I7
sg36
I4
sbsba(imap.components.wall
Wall
p5177
(dp5178
g29
I00
sg30
g4471
sg32
(imap.components.point
Point
p5179
(dp5180
g35
I7
sg36
I5
sbsba(imap.components.wall
Wall
p5181
(dp5182
g29
I00
sg30
g4471
sg32
(imap.components.point
Point
p5183
(dp5184
g35
I7
sg36
I6
sbsba(imap.components.wall
Wall
p5185
(dp5186
g29
I00
sg30
g4471
sg32
(imap.components.point
Point
p5187
(dp5188
g35
I7
sg36
I7
sbsba(imap.components.wall
Wall
p5189
(dp5190
g29
I00
sg30
g4471
sg32
(imap.components.point
Point
p5191
(dp5192
g35
I7
sg36
I8
sbsba(imap.components.wall
Wall
p5193
(dp5194
g29
I00
sg30
g4471
sg32
(imap.components.point
Point
p5195
(dp5196
g35
I7
sg36
I9
sbsba(imap.components.wall
Wall
p5197
(dp5198
g29
I00
sg30
g4471
sg32
(imap.components.point
Point
p5199
(dp5200
g35
I7
sg36
I10
sbsba(imap.components.wall
Wall
p5201
(dp5202
g29
I00
sg30
g4471
sg32
(imap.components.point
Point
p5203
(dp5204
g35
I7
sg36
I11
sbsba(imap.components.wall
Wall
p5205
(dp5206
g29
I00
sg30
g4471
sg32
(imap.components.point
Point
p5207
(dp5208
g35
I7
sg36
I12
sbsba(imap.components.wall
Wall
p5209
(dp5210
g29
I00
sg30
g4471
sg32
(imap.components.point
Point
p5211
(dp5212
g35
I7
sg36
I13
sbsba(imap.components.floor
Floor
p5213
(dp5214
g29
I01
sg30
g4488
sg32
(imap.components.point
Point
p5215
(dp5216
g35
I7
sg36
I14
sbsba(imap.components.floor
Floor
p5217
(dp5218
g29
I01
sg30
g4488
sg32
(imap.components.point
Point
p5219
(dp5220
g35
I7
sg36
I15
sbsba(imap.components.floor
Floor
p5221
(dp5222
g29
I01
sg30
g4488
sg32
(imap.components.point
Point
p5223
(dp5224
g35
I7
sg36
I16
sbsba(imap.components.floor
Floor
p5225
(dp5226
g29
I01
sg30
g4488
sg32
(imap.components.point
Point
p5227
(dp5228
g35
I7
sg36
I17
sbsba(imap.components.floor
Floor
p5229
(dp5230
g29
I01
sg30
g4488
sg32
(imap.components.point
Point
p5231
(dp5232
g35
I7
sg36
I18
sbsba(imap.components.wall
Wall
p5233
(dp5234
g29
I00
sg30
g4471
sg32
(imap.components.point
Point
p5235
(dp5236
g35
I7
sg36
I19
sbsbag4568
ag4572
ag4576
a(imap.components.floor
Floor
p5237
(dp5238
g29
I01
sg30
g4488
sg32
(imap.components.point
Point
p5239
(dp5240
g35
I8
sg36
I3
sbsba(imap.components.door
Door
p5241
(dp5242
g29
I01
sg30
g4501
sg32
(imap.components.point
Point
p5243
(dp5244
g35
I8
sg36
I4
sbsba(imap.components.floor
Floor
p5245
(dp5246
g29
I01
sg30
g4488
sg32
(imap.components.point
Point
p5247
(dp5248
g35
I8
sg36
I5
sbsba(imap.components.floor
Floor
p5249
(dp5250
g29
I01
sg30
g4488
sg32
(imap.components.point
Point
p5251
(dp5252
g35
I8
sg36
I6
sbsba(imap.components.floor
Floor
p5253
(dp5254
g29
I01
sg30
g4488
sg32
(imap.components.point
Point
p5255
(dp5256
g35
I8
sg36
I7
sbsba(imap.components.floor
Floor
p5257
(dp5258
g29
I01
sg30
g4488
sg32
(imap.components.point
Point
p5259
(dp5260
g35
I8
sg36
I8
sbsba(imap.components.floor
Floor
p5261
(dp5262
g29
I01
sg30
g4488
sg32
(imap.components.point
Point
p5263
(dp5264
g35
I8
sg36
I9
sbsba(imap.components.floor
Floor
p5265
(dp5266
g29
I01
sg30
g4488
sg32
(imap.components.point
Point
p5267
(dp5268
g35
I8
sg36
I10
sbsba(imap.components.floor
Floor
p5269
(dp5270
g29
I01
sg30
g4488
sg32
(imap.components.point
Point
p5271
(dp5272
g35
I8
sg36
I11
sbsba(imap.components.floor
Floor
p5273
(dp5274
g29
I01
sg30
g4488
sg32
(imap.components.point
Point
p5275
(dp5276
g35
I8
sg36
I12
sbsba(imap.components.wall
Wall
p5277
(dp5278
g29
I00
sg30
g4471
sg32
(imap.components.point
Point
p5279
(dp5280
g35
I8
sg36
I13
sbsba(imap.components.floor
Floor
p5281
(dp5282
g29
I01
sg30
g4488
sg32
(imap.components.point
Point
p5283
(dp5284
g35
I8
sg36
I14
sbsba(imap.components.floor
Floor
p5285
(dp5286
g29
I01
sg30
g4488
sg32
(imap.components.point
Point
p5287
(dp5288
g35
I8
sg36
I15
sbsba(imap.components.floor
Floor
p5289
(dp5290
g29
I01
sg30
g4488
sg32
(imap.components.point
Point
p5291
(dp5292
g35
I8
sg36
I16
sbsba(imap.components.floor
Floor
p5293
(dp5294
g29
I01
sg30
g4488
sg32
(imap.components.point
Point
p5295
(dp5296
g35
I8
sg36
I17
sbsba(imap.components.floor
Floor
p5297
(dp5298
g29
I01
sg30
g4488
sg32
(imap.components.point
Point
p5299
(dp5300
g35
I8
sg36
I18
sbsba(imap.components.wall
Wall
p5301
(dp5302
g29
I00
sg30
g4471
sg32
(imap.components.point
Point
p5303
(dp5304
g35
I8
sg36
I19
sbsbag4580
ag4584
ag4588
a(imap.components.floor
Floor
p5305
(dp5306
g29
I01
sg30
g4488
sg32
(imap.components.point
Point
p5307
(dp5308
g35
I9
sg36
I3
sbsba(imap.components.wall
Wall
p5309
(dp5310
g29
I00
sg30
g4471
sg32
(imap.components.point
Point
p5311
(dp5312
g35
I9
sg36
I4
sbsba(imap.components.floor
Floor
p5313
(dp5314
g29
I01
sg30
g4488
sg32
(imap.components.point
Point
p5315
(dp5316
g35
I9
sg36
I5
sbsba(imap.components.floor
Floor
p5317
(dp5318
g29
I01
sg30
g4488
sg32
(imap.components.point
Point
p5319
(dp5320
g35
I9
sg36
I6
sbsba(imap.components.floor
Floor
p5321
(dp5322
g29
I01
sg30
g4488
sg32
(imap.components.point
Point
p5323
(dp5324
g35
I9
sg36
I7
sbsba(imap.components.floor
Floor
p5325
(dp5326
g29
I01
sg30
g4488
sg32
(imap.components.point
Point
p5327
(dp5328
g35
I9
sg36
I8
sbsba(imap.components.floor
Floor
p5329
(dp5330
g29
I01
sg30
g4488
sg32
(imap.components.point
Point
p5331
(dp5332
g35
I9
sg36
I9
sbsba(imap.components.floor
Floor
p5333
(dp5334
g29
I01
sg30
g4488
sg32
(imap.components.point
Point
p5335
(dp5336
g35
I9
sg36
I10
sbsba(imap.components.floor
Floor
p5337
(dp5338
g29
I01
sg30
g4488
sg32
(imap.components.point
Point
p5339
(dp5340
g35
I9
sg36
I11
sbsba(imap.components.floor
Floor
p5341
(dp5342
g29
I01
sg30
g4488
sg32
(imap.components.point
Point
p5343
(dp5344
g35
I9
sg36
I12
sbsba(imap.components.wall
Wall
p5345
(dp5346
g29
I00
sg30
g4471
sg32
(imap.components.point
Point
p5347
(dp5348
g35
I9
sg36
I13
sbsba(imap.components.floor
Floor
p5349
(dp5350
g29
I01
sg30
g4488
sg32
(imap.components.point
Point
p5351
(dp5352
g35
I9
sg36
I14
sbsba(imap.components.floor
Floor
p5353
(dp5354
g29
I01
sg30
g4488
sg32
(imap.components.point
Point
p5355
(dp5356
g35
I9
sg36
I15
sbsba(imap.components.floor
Floor
p5357
(dp5358
g29
I01
sg30
g4488
sg32
(imap.components.point
Point
p5359
(dp5360
g35
I9
sg36
I16
sbsba(imap.components.floor
Floor
p5361
(dp5362
g29
I01
sg30
g4488
sg32
(imap.components.point
Point
p5363
(dp5364
g35
I9
sg36
I17
sbsba(imap.components.floor
Floor
p5365
(dp5366
g29
I01
sg30
g4488
sg32
(imap.components.point
Point
p5367
(dp5368
g35
I9
sg36
I18
sbsba(imap.components.wall
Wall
p5369
(dp5370
g29
I00
sg30
g4471
sg32
(imap.components.point
Point
p5371
(dp5372
g35
I9
sg36
I19
sbsbag4592
ag4596
ag4600
a(imap.components.floor
Floor
p5373
(dp5374
g29
I01
sg30
g4488
sg32
(imap.components.point
Point
p5375
(dp5376
g35
I10
sg36
I3
sbsba(imap.components.wall
Wall
p5377
(dp5378
g29
I00
sg30
g4471
sg32
(imap.components.point
Point
p5379
(dp5380
g35
I10
sg36
I4
sbsba(imap.components.floor
Floor
p5381
(dp5382
g29
I01
sg30
g4488
sg32
(imap.components.point
Point
p5383
(dp5384
g35
I10
sg36
I5
sbsba(imap.components.floor
Floor
p5385
(dp5386
g29
I01
sg30
g4488
sg32
(imap.components.point
Point
p5387
(dp5388
g35
I10
sg36
I6
sbsba(imap.components.floor
Floor
p5389
(dp5390
g29
I01
sg30
g4488
sg32
(imap.components.point
Point
p5391
(dp5392
g35
I10
sg36
I7
sbsba(imap.components.floor
Floor
p5393
(dp5394
g29
I01
sg30
g4488
sg32
(imap.components.point
Point
p5395
(dp5396
g35
I10
sg36
I8
sbsba(imap.components.floor
Floor
p5397
(dp5398
g29
I01
sg30
g4488
sg32
(imap.components.point
Point
p5399
(dp5400
g35
I10
sg36
I9
sbsba(imap.components.floor
Floor
p5401
(dp5402
g29
I01
sg30
g4488
sg32
(imap.components.point
Point
p5403
(dp5404
g35
I10
sg36
I10
sbsba(imap.components.floor
Floor
p5405
(dp5406
g29
I01
sg30
g4488
sg32
(imap.components.point
Point
p5407
(dp5408
g35
I10
sg36
I11
sbsba(imap.components.floor
Floor
p5409
(dp5410
g29
I01
sg30
g4488
sg32
(imap.components.point
Point
p5411
(dp5412
g35
I10
sg36
I12
sbsba(imap.components.wall
Wall
p5413
(dp5414
g29
I00
sg30
g4471
sg32
(imap.components.point
Point
p5415
(dp5416
g35
I10
sg36
I13
sbsba(imap.components.floor
Floor
p5417
(dp5418
g29
I01
sg30
g4488
sg32
(imap.components.point
Point
p5419
(dp5420
g35
I10
sg36
I14
sbsba(imap.components.floor
Floor
p5421
(dp5422
g29
I01
sg30
g4488
sg32
(imap.components.point
Point
p5423
(dp5424
g35
I10
sg36
I15
sbsba(imap.components.floor
Floor
p5425
(dp5426
g29
I01
sg30
g4488
sg32
(imap.components.point
Point
p5427
(dp5428
g35
I10
sg36
I16
sbsba(imap.components.floor
Floor
p5429
(dp5430
g29
I01
sg30
g4488
sg32
(imap.components.point
Point
p5431
(dp5432
g35
I10
sg36
I17
sbsba(imap.components.floor
Floor
p5433
(dp5434
g29
I01
sg30
g4488
sg32
(imap.components.point
Point
p5435
(dp5436
g35
I10
sg36
I18
sbsba(imap.components.wall
Wall
p5437
(dp5438
g29
I00
sg30
g4471
sg32
(imap.components.point
Point
p5439
(dp5440
g35
I10
sg36
I19
sbsbag4604
ag4608
ag4612
a(imap.components.door
Door
p5441
(dp5442
g29
I01
sg30
g4501
sg32
(imap.components.point
Point
p5443
(dp5444
g35
I11
sg36
I3
sbsba(imap.components.wall
Wall
p5445
(dp5446
g29
I00
sg30
g4471
sg32
(imap.components.point
Point
p5447
(dp5448
g35
I11
sg36
I4
sbsba(imap.components.floor
Floor
p5449
(dp5450
g29
I01
sg30
g4488
sg32
(imap.components.point
Point
p5451
(dp5452
g35
I11
sg36
I5
sbsba(imap.components.floor
Floor
p5453
(dp5454
g29
I01
sg30
g4488
sg32
(imap.components.point
Point
p5455
(dp5456
g35
I11
sg36
I6
sbsba(imap.components.floor
Floor
p5457
(dp5458
g29
I01
sg30
g4488
sg32
(imap.components.point
Point
p5459
(dp5460
g35
I11
sg36
I7
sbsba(imap.components.floor
Floor
p5461
(dp5462
g29
I01
sg30
g4488
sg32
(imap.components.point
Point
p5463
(dp5464
g35
I11
sg36
I8
sbsba(imap.components.floor
Floor
p5465
(dp5466
g29
I01
sg30
g4488
sg32
(imap.components.point
Point
p5467
(dp5468
g35
I11
sg36
I9
sbsba(imap.components.floor
Floor
p5469
(dp5470
g29
I01
sg30
g4488
sg32
(imap.components.point
Point
p5471
(dp5472
g35
I11
sg36
I10
sbsba(imap.components.floor
Floor
p5473
(dp5474
g29
I01
sg30
g4488
sg32
(imap.components.point
Point
p5475
(dp5476
g35
I11
sg36
I11
sbsba(imap.components.floor
Floor
p5477
(dp5478
g29
I01
sg30
g4488
sg32
(imap.components.point
Point
p5479
(dp5480
g35
I11
sg36
I12
sbsba(imap.components.wall
Wall
p5481
(dp5482
g29
I00
sg30
g4471
sg32
(imap.components.point
Point
p5483
(dp5484
g35
I11
sg36
I13
sbsba(imap.components.floor
Floor
p5485
(dp5486
g29
I01
sg30
g4488
sg32
(imap.components.point
Point
p5487
(dp5488
g35
I11
sg36
I14
sbsba(imap.components.floor
Floor
p5489
(dp5490
g29
I01
sg30
g4488
sg32
(imap.components.point
Point
p5491
(dp5492
g35
I11
sg36
I15
sbsba(imap.components.floor
Floor
p5493
(dp5494
g29
I01
sg30
g4488
sg32
(imap.components.point
Point
p5495
(dp5496
g35
I11
sg36
I16
sbsba(imap.components.floor
Floor
p5497
(dp5498
g29
I01
sg30
g4488
sg32
(imap.components.point
Point
p5499
(dp5500
g35
I11
sg36
I17
sbsba(imap.components.floor
Floor
p5501
(dp5502
g29
I01
sg30
g4488
sg32
(imap.components.point
Point
p5503
(dp5504
g35
I11
sg36
I18
sbsba(imap.components.wall
Wall
p5505
(dp5506
g29
I00
sg30
g4471
sg32
(imap.components.point
Point
p5507
(dp5508
g35
I11
sg36
I19
sbsbag4616
ag4620
ag4624
a(imap.components.floor
Floor
p5509
(dp5510
g29
I01
sg30
g4488
sg32
(imap.components.point
Point
p5511
(dp5512
g35
I12
sg36
I3
sbsba(imap.components.door
Door
p5513
(dp5514
g29
I01
sg30
g4501
sg32
(imap.components.point
Point
p5515
(dp5516
g35
I12
sg36
I4
sbsba(imap.components.floor
Floor
p5517
(dp5518
g29
I01
sg30
g4488
sg32
(imap.components.point
Point
p5519
(dp5520
g35
I12
sg36
I5
sbsba(imap.components.floor
Floor
p5521
(dp5522
g29
I01
sg30
g4488
sg32
(imap.components.point
Point
p5523
(dp5524
g35
I12
sg36
I6
sbsba(imap.components.floor
Floor
p5525
(dp5526
g29
I01
sg30
g4488
sg32
(imap.components.point
Point
p5527
(dp5528
g35
I12
sg36
I7
sbsba(imap.components.floor
Floor
p5529
(dp5530
g29
I01
sg30
g4488
sg32
(imap.components.point
Point
p5531
(dp5532
g35
I12
sg36
I8
sbsba(imap.components.floor
Floor
p5533
(dp5534
g29
I01
sg30
g4488
sg32
(imap.components.point
Point
p5535
(dp5536
g35
I12
sg36
I9
sbsba(imap.components.floor
Floor
p5537
(dp5538
g29
I01
sg30
g4488
sg32
(imap.components.point
Point
p5539
(dp5540
g35
I12
sg36
I10
sbsba(imap.components.floor
Floor
p5541
(dp5542
g29
I01
sg30
g4488
sg32
(imap.components.point
Point
p5543
(dp5544
g35
I12
sg36
I11
sbsba(imap.components.floor
Floor
p5545
(dp5546
g29
I01
sg30
g4488
sg32
(imap.components.point
Point
p5547
(dp5548
g35
I12
sg36
I12
sbsba(imap.components.wall
Wall
p5549
(dp5550
g29
I00
sg30
g4471
sg32
(imap.components.point
Point
p5551
(dp5552
g35
I12
sg36
I13
sbsba(imap.components.floor
Floor
p5553
(dp5554
g29
I01
sg30
g4488
sg32
(imap.components.point
Point
p5555
(dp5556
g35
I12
sg36
I14
sbsba(imap.components.floor
Floor
p5557
(dp5558
g29
I01
sg30
g4488
sg32
(imap.components.point
Point
p5559
(dp5560
g35
I12
sg36
I15
sbsba(imap.components.floor
Floor
p5561
(dp5562
g29
I01
sg30
g4488
sg32
(imap.components.point
Point
p5563
(dp5564
g35
I12
sg36
I16
sbsba(imap.components.floor
Floor
p5565
(dp5566
g29
I01
sg30
g4488
sg32
(imap.components.point
Point
p5567
(dp5568
g35
I12
sg36
I17
sbsba(imap.components.floor
Floor
p5569
(dp5570
g29
I01
sg30
g4488
sg32
(imap.components.point
Point
p5571
(dp5572
g35
I12
sg36
I18
sbsba(imap.components.wall
Wall
p5573
(dp5574
g29
I00
sg30
g4471
sg32
(imap.components.point
Point
p5575
(dp5576
g35
I12
sg36
I19
sbsbag4628
ag4632
ag4636
a(imap.components.floor
Floor
p5577
(dp5578
g29
I01
sg30
g4488
sg32
(imap.components.point
Point
p5579
(dp5580
g35
I13
sg36
I3
sbsba(imap.components.wall
Wall
p5581
(dp5582
g29
I00
sg30
g4471
sg32
(imap.components.point
Point
p5583
(dp5584
g35
I13
sg36
I4
sbsba(imap.components.floor
Floor
p5585
(dp5586
g29
I01
sg30
g4488
sg32
(imap.components.point
Point
p5587
(dp5588
g35
I13
sg36
I5
sbsba(imap.components.floor
Floor
p5589
(dp5590
g29
I01
sg30
g4488
sg32
(imap.components.point
Point
p5591
(dp5592
g35
I13
sg36
I6
sbsba(imap.components.floor
Floor
p5593
(dp5594
g29
I01
sg30
g4488
sg32
(imap.components.point
Point
p5595
(dp5596
g35
I13
sg36
I7
sbsba(imap.components.floor
Floor
p5597
(dp5598
g29
I01
sg30
g4488
sg32
(imap.components.point
Point
p5599
(dp5600
g35
I13
sg36
I8
sbsba(imap.components.floor
Floor
p5601
(dp5602
g29
I01
sg30
g4488
sg32
(imap.components.point
Point
p5603
(dp5604
g35
I13
sg36
I9
sbsba(imap.components.floor
Floor
p5605
(dp5606
g29
I01
sg30
g4488
sg32
(imap.components.point
Point
p5607
(dp5608
g35
I13
sg36
I10
sbsba(imap.components.floor
Floor
p5609
(dp5610
g29
I01
sg30
g4488
sg32
(imap.components.point
Point
p5611
(dp5612
g35
I13
sg36
I11
sbsba(imap.components.floor
Floor
p5613
(dp5614
g29
I01
sg30
g4488
sg32
(imap.components.point
Point
p5615
(dp5616
g35
I13
sg36
I12
sbsba(imap.components.wall
Wall
p5617
(dp5618
g29
I00
sg30
g4471
sg32
(imap.components.point
Point
p5619
(dp5620
g35
I13
sg36
I13
sbsba(imap.components.floor
Floor
p5621
(dp5622
g29
I01
sg30
g4488
sg32
(imap.components.point
Point
p5623
(dp5624
g35
I13
sg36
I14
sbsba(imap.components.floor
Floor
p5625
(dp5626
g29
I01
sg30
g4488
sg32
(imap.components.point
Point
p5627
(dp5628
g35
I13
sg36
I15
sbsba(imap.components.floor
Floor
p5629
(dp5630
g29
I01
sg30
g4488
sg32
(imap.components.point
Point
p5631
(dp5632
g35
I13
sg36
I16
sbsba(imap.components.floor
Floor
p5633
(dp5634
g29
I01
sg30
g4488
sg32
(imap.components.point
Point
p5635
(dp5636
g35
I13
sg36
I17
sbsba(imap.components.floor
Floor
p5637
(dp5638
g29
I01
sg30
g4488
sg32
(imap.components.point
Point
p5639
(dp5640
g35
I13
sg36
I18
sbsba(imap.components.wall
Wall
p5641
(dp5642
g29
I00
sg30
g4471
sg32
(imap.components.point
Point
p5643
(dp5644
g35
I13
sg36
I19
sbsbag4640
ag4644
ag4648
a(imap.components.floor
Floor
p5645
(dp5646
g29
I01
sg30
g4488
sg32
(imap.components.point
Point
p5647
(dp5648
g35
I14
sg36
I3
sbsba(imap.components.wall
Wall
p5649
(dp5650
g29
I00
sg30
g4471
sg32
(imap.components.point
Point
p5651
(dp5652
g35
I14
sg36
I4
sbsba(imap.components.floor
Floor
p5653
(dp5654
g29
I01
sg30
g4488
sg32
(imap.components.point
Point
p5655
(dp5656
g35
I14
sg36
I5
sbsba(imap.components.floor
Floor
p5657
(dp5658
g29
I01
sg30
g4488
sg32
(imap.components.point
Point
p5659
(dp5660
g35
I14
sg36
I6
sbsba(imap.components.floor
Floor
p5661
(dp5662
g29
I01
sg30
g4488
sg32
(imap.components.point
Point
p5663
(dp5664
g35
I14
sg36
I7
sbsba(imap.components.floor
Floor
p5665
(dp5666
g29
I01
sg30
g4488
sg32
(imap.components.point
Point
p5667
(dp5668
g35
I14
sg36
I8
sbsba(imap.components.floor
Floor
p5669
(dp5670
g29
I01
sg30
g4488
sg32
(imap.components.point
Point
p5671
(dp5672
g35
I14
sg36
I9
sbsba(imap.components.floor
Floor
p5673
(dp5674
g29
I01
sg30
g4488
sg32
(imap.components.point
Point
p5675
(dp5676
g35
I14
sg36
I10
sbsba(imap.components.floor
Floor
p5677
(dp5678
g29
I01
sg30
g4488
sg32
(imap.components.point
Point
p5679
(dp5680
g35
I14
sg36
I11
sbsba(imap.components.floor
Floor
p5681
(dp5682
g29
I01
sg30
g4488
sg32
(imap.components.point
Point
p5683
(dp5684
g35
I14
sg36
I12
sbsba(imap.components.wall
Wall
p5685
(dp5686
g29
I00
sg30
g4471
sg32
(imap.components.point
Point
p5687
(dp5688
g35
I14
sg36
I13
sbsba(imap.components.floor
Floor
p5689
(dp5690
g29
I01
sg30
g4488
sg32
(imap.components.point
Point
p5691
(dp5692
g35
I14
sg36
I14
sbsba(imap.components.floor
Floor
p5693
(dp5694
g29
I01
sg30
g4488
sg32
(imap.components.point
Point
p5695
(dp5696
g35
I14
sg36
I15
sbsba(imap.components.floor
Floor
p5697
(dp5698
g29
I01
sg30
g4488
sg32
(imap.components.point
Point
p5699
(dp5700
g35
I14
sg36
I16
sbsba(imap.components.floor
Floor
p5701
(dp5702
g29
I01
sg30
g4488
sg32
(imap.components.point
Point
p5703
(dp5704
g35
I14
sg36
I17
sbsba(imap.components.floor
Floor
p5705
(dp5706
g29
I01
sg30
g4488
sg32
(imap.components.point
Point
p5707
(dp5708
g35
I14
sg36
I18
sbsba(imap.components.wall
Wall
p5709
(dp5710
g29
I00
sg30
g4471
sg32
(imap.components.point
Point
p5711
(dp5712
g35
I14
sg36
I19
sbsbag4652
ag4656
ag4660
a(imap.components.floor
Floor
p5713
(dp5714
g29
I01
sg30
g4488
sg32
(imap.components.point
Point
p5715
(dp5716
g35
I15
sg36
I3
sbsba(imap.components.wall
Wall
p5717
(dp5718
g29
I00
sg30
g4471
sg32
(imap.components.point
Point
p5719
(dp5720
g35
I15
sg36
I4
sbsba(imap.components.floor
Floor
p5721
(dp5722
g29
I01
sg30
g4488
sg32
(imap.components.point
Point
p5723
(dp5724
g35
I15
sg36
I5
sbsba(imap.components.floor
Floor
p5725
(dp5726
g29
I01
sg30
g4488
sg32
(imap.components.point
Point
p5727
(dp5728
g35
I15
sg36
I6
sbsba(imap.components.floor
Floor
p5729
(dp5730
g29
I01
sg30
g4488
sg32
(imap.components.point
Point
p5731
(dp5732
g35
I15
sg36
I7
sbsba(imap.components.floor
Floor
p5733
(dp5734
g29
I01
sg30
g4488
sg32
(imap.components.point
Point
p5735
(dp5736
g35
I15
sg36
I8
sbsba(imap.components.floor
Floor
p5737
(dp5738
g29
I01
sg30
g4488
sg32
(imap.components.point
Point
p5739
(dp5740
g35
I15
sg36
I9
sbsba(imap.components.floor
Floor
p5741
(dp5742
g29
I01
sg30
g4488
sg32
(imap.components.point
Point
p5743
(dp5744
g35
I15
sg36
I10
sbsba(imap.components.floor
Floor
p5745
(dp5746
g29
I01
sg30
g4488
sg32
(imap.components.point
Point
p5747
(dp5748
g35
I15
sg36
I11
sbsba(imap.components.floor
Floor
p5749
(dp5750
g29
I01
sg30
g4488
sg32
(imap.components.point
Point
p5751
(dp5752
g35
I15
sg36
I12
sbsba(imap.components.wall
Wall
p5753
(dp5754
g29
I00
sg30
g4471
sg32
(imap.components.point
Point
p5755
(dp5756
g35
I15
sg36
I13
sbsba(imap.components.floor
Floor
p5757
(dp5758
g29
I01
sg30
g4488
sg32
(imap.components.point
Point
p5759
(dp5760
g35
I15
sg36
I14
sbsba(imap.components.floor
Floor
p5761
(dp5762
g29
I01
sg30
g4488
sg32
(imap.components.point
Point
p5763
(dp5764
g35
I15
sg36
I15
sbsba(imap.components.floor
Floor
p5765
(dp5766
g29
I01
sg30
g4488
sg32
(imap.components.point
Point
p5767
(dp5768
g35
I15
sg36
I16
sbsba(imap.components.floor
Floor
p5769
(dp5770
g29
I01
sg30
g4488
sg32
(imap.components.point
Point
p5771
(dp5772
g35
I15
sg36
I17
sbsba(imap.components.floor
Floor
p5773
(dp5774
g29
I01
sg30
g4488
sg32
(imap.components.point
Point
p5775
(dp5776
g35
I15
sg36
I18
sbsba(imap.components.wall
Wall
p5777
(dp5778
g29
I00
sg30
g4471
sg32
(imap.components.point
Point
p5779
(dp5780
g35
I15
sg36
I19
sbsbag4664
ag4668
ag4672
a(imap.components.floor
Floor
p5781
(dp5782
g29
I01
sg30
g4488
sg32
(imap.components.point
Point
p5783
(dp5784
g35
I16
sg36
I3
sbsba(imap.components.wall
Wall
p5785
(dp5786
g29
I00
sg30
g4471
sg32
(imap.components.point
Point
p5787
(dp5788
g35
I16
sg36
I4
sbsba(imap.components.floor
Floor
p5789
(dp5790
g29
I01
sg30
g4488
sg32
(imap.components.point
Point
p5791
(dp5792
g35
I16
sg36
I5
sbsba(imap.components.floor
Floor
p5793
(dp5794
g29
I01
sg30
g4488
sg32
(imap.components.point
Point
p5795
(dp5796
g35
I16
sg36
I6
sbsba(imap.components.floor
Floor
p5797
(dp5798
g29
I01
sg30
g4488
sg32
(imap.components.point
Point
p5799
(dp5800
g35
I16
sg36
I7
sbsba(imap.components.floor
Floor
p5801
(dp5802
g29
I01
sg30
g4488
sg32
(imap.components.point
Point
p5803
(dp5804
g35
I16
sg36
I8
sbsba(imap.components.floor
Floor
p5805
(dp5806
g29
I01
sg30
g4488
sg32
(imap.components.point
Point
p5807
(dp5808
g35
I16
sg36
I9
sbsba(imap.components.floor
Floor
p5809
(dp5810
g29
I01
sg30
g4488
sg32
(imap.components.point
Point
p5811
(dp5812
g35
I16
sg36
I10
sbsba(imap.components.floor
Floor
p5813
(dp5814
g29
I01
sg30
g4488
sg32
(imap.components.point
Point
p5815
(dp5816
g35
I16
sg36
I11
sbsba(imap.components.floor
Floor
p5817
(dp5818
g29
I01
sg30
g4488
sg32
(imap.components.point
Point
p5819
(dp5820
g35
I16
sg36
I12
sbsba(imap.components.wall
Wall
p5821
(dp5822
g29
I00
sg30
g4471
sg32
(imap.components.point
Point
p5823
(dp5824
g35
I16
sg36
I13
sbsba(imap.components.floor
Floor
p5825
(dp5826
g29
I01
sg30
g4488
sg32
(imap.components.point
Point
p5827
(dp5828
g35
I16
sg36
I14
sbsba(imap.components.floor
Floor
p5829
(dp5830
g29
I01
sg30
g4488
sg32
(imap.components.point
Point
p5831
(dp5832
g35
I16
sg36
I15
sbsba(imap.components.floor
Floor
p5833
(dp5834
g29
I01
sg30
g4488
sg32
(imap.components.point
Point
p5835
(dp5836
g35
I16
sg36
I16
sbsba(imap.components.floor
Floor
p5837
(dp5838
g29
I01
sg30
g4488
sg32
(imap.components.point
Point
p5839
(dp5840
g35
I16
sg36
I17
sbsba(imap.components.floor
Floor
p5841
(dp5842
g29
I01
sg30
g4488
sg32
(imap.components.point
Point
p5843
(dp5844
g35
I16
sg36
I18
sbsba(imap.components.wall
Wall
p5845
(dp5846
g29
I00
sg30
g4471
sg32
(imap.components.point
Point
p5847
(dp5848
g35
I16
sg36
I19
sbsbag4676
ag4680
ag4684
a(imap.components.floor
Floor
p5849
(dp5850
g29
I01
sg30
g4488
sg32
(imap.components.point
Point
p5851
(dp5852
g35
I17
sg36
I3
sbsba(imap.components.wall
Wall
p5853
(dp5854
g29
I00
sg30
g4471
sg32
(imap.components.point
Point
p5855
(dp5856
g35
I17
sg36
I4
sbsba(imap.components.floor
Floor
p5857
(dp5858
g29
I01
sg30
g4488
sg32
(imap.components.point
Point
p5859
(dp5860
g35
I17
sg36
I5
sbsba(imap.components.floor
Floor
p5861
(dp5862
g29
I01
sg30
g4488
sg32
(imap.components.point
Point
p5863
(dp5864
g35
I17
sg36
I6
sbsba(imap.components.floor
Floor
p5865
(dp5866
g29
I01
sg30
g4488
sg32
(imap.components.point
Point
p5867
(dp5868
g35
I17
sg36
I7
sbsba(imap.components.floor
Floor
p5869
(dp5870
g29
I01
sg30
g4488
sg32
(imap.components.point
Point
p5871
(dp5872
g35
I17
sg36
I8
sbsba(imap.components.floor
Floor
p5873
(dp5874
g29
I01
sg30
g4488
sg32
(imap.components.point
Point
p5875
(dp5876
g35
I17
sg36
I9
sbsba(imap.components.floor
Floor
p5877
(dp5878
g29
I01
sg30
g4488
sg32
(imap.components.point
Point
p5879
(dp5880
g35
I17
sg36
I10
sbsba(imap.components.floor
Floor
p5881
(dp5882
g29
I01
sg30
g4488
sg32
(imap.components.point
Point
p5883
(dp5884
g35
I17
sg36
I11
sbsba(imap.components.floor
Floor
p5885
(dp5886
g29
I01
sg30
g4488
sg32
(imap.components.point
Point
p5887
(dp5888
g35
I17
sg36
I12
sbsba(imap.components.wall
Wall
p5889
(dp5890
g29
I00
sg30
g4471
sg32
(imap.components.point
Point
p5891
(dp5892
g35
I17
sg36
I13
sbsba(imap.components.floor
Floor
p5893
(dp5894
g29
I01
sg30
g4488
sg32
(imap.components.point
Point
p5895
(dp5896
g35
I17
sg36
I14
sbsba(imap.components.floor
Floor
p5897
(dp5898
g29
I01
sg30
g4488
sg32
(imap.components.point
Point
p5899
(dp5900
g35
I17
sg36
I15
sbsba(imap.components.floor
Floor
p5901
(dp5902
g29
I01
sg30
g4488
sg32
(imap.components.point
Point
p5903
(dp5904
g35
I17
sg36
I16
sbsba(imap.components.floor
Floor
p5905
(dp5906
g29
I01
sg30
g4488
sg32
(imap.components.point
Point
p5907
(dp5908
g35
I17
sg36
I17
sbsba(imap.components.floor
Floor
p5909
(dp5910
g29
I01
sg30
g4488
sg32
(imap.components.point
Point
p5911
(dp5912
g35
I17
sg36
I18
sbsba(imap.components.wall
Wall
p5913
(dp5914
g29
I00
sg30
g4471
sg32
(imap.components.point
Point
p5915
(dp5916
g35
I17
sg36
I19
sbsba(imap.components.wall
Wall
p5917
(dp5918
g29
I00
sg30
g4471
sg32
(imap.components.point
Point
p5919
(dp5920
g35
I18
sg36
I0
sbsba(imap.components.floor
Floor
p5921
(dp5922
g29
I01
sg30
g4488
sg32
(imap.components.point
Point
p5923
(dp5924
g35
I18
sg36
I1
sbsba(imap.components.floor
Floor
p5925
(dp5926
g29
I01
sg30
g4488
sg32
(imap.components.point
Point
p5927
(dp5928
g35
I18
sg36
I2
sbsba(imap.components.floor
Floor
p5929
(dp5930
g29
I01
sg30
g4488
sg32
(imap.components.point
Point
p5931
(dp5932
g35
I18
sg36
I3
sbsba(imap.components.wall
Wall
p5933
(dp5934
g29
I00
sg30
g4471
sg32
(imap.components.point
Point
p5935
(dp5936
g35
I18
sg36
I4
sbsba(imap.components.floor
Floor
p5937
(dp5938
g29
I01
sg30
g4488
sg32
(imap.components.point
Point
p5939
(dp5940
g35
I18
sg36
I5
sbsba(imap.components.floor
Floor
p5941
(dp5942
g29
I01
sg30
g4488
sg32
(imap.components.point
Point
p5943
(dp5944
g35
I18
sg36
I6
sbsba(imap.components.floor
Floor
p5945
(dp5946
g29
I01
sg30
g4488
sg32
(imap.components.point
Point
p5947
(dp5948
g35
I18
sg36
I7
sbsba(imap.components.floor
Floor
p5949
(dp5950
g29
I01
sg30
g4488
sg32
(imap.components.point
Point
p5951
(dp5952
g35
I18
sg36
I8
sbsba(imap.components.floor
Floor
p5953
(dp5954
g29
I01
sg30
g4488
sg32
(imap.components.point
Point
p5955
(dp5956
g35
I18
sg36
I9
sbsba(imap.components.floor
Floor
p5957
(dp5958
g29
I01
sg30
g4488
sg32
(imap.components.point
Point
p5959
(dp5960
g35
I18
sg36
I10
sbsba(imap.components.floor
Floor
p5961
(dp5962
g29
I01
sg30
g4488
sg32
(imap.components.point
Point
p5963
(dp5964
g35
I18
sg36
I11
sbsba(imap.components.floor
Floor
p5965
(dp5966
g29
I01
sg30
g4488
sg32
(imap.components.point
Point
p5967
(dp5968
g35
I18
sg36
I12
sbsba(imap.components.wall
Wall
p5969
(dp5970
g29
I00
sg30
g4471
sg32
(imap.components.point
Point
p5971
(dp5972
g35
I18
sg36
I13
sbsba(imap.components.floor
Floor
p5973
(dp5974
g29
I01
sg30
g4488
sg32
(imap.components.point
Point
p5975
(dp5976
g35
I18
sg36
I14
sbsba(imap.components.floor
Floor
p5977
(dp5978
g29
I01
sg30
g4488
sg32
(imap.components.point
Point
p5979
(dp5980
g35
I18
sg36
I15
sbsba(imap.components.floor
Floor
p5981
(dp5982
g29
I01
sg30
g4488
sg32
(imap.components.point
Point
p5983
(dp5984
g35
I18
sg36
I16
sbsba(imap.components.floor
Floor
p5985
(dp5986
g29
I01
sg30
g4488
sg32
(imap.components.point
Point
p5987
(dp5988
g35
I18
sg36
I17
sbsba(imap.components.floor
Floor
p5989
(dp5990
g29
I01
sg30
g4488
sg32
(imap.components.point
Point
p5991
(dp5992
g35
I18
sg36
I18
sbsba(imap.components.exit
Exit
p5993
(dp5994
g29
I01
sg30
S'*'
p5995
sg32
(imap.components.point
Point
p5996
(dp5997
g35
I18
sg36
I19
sbsba(imap.components.wall
Wall
p5998
(dp5999
g29
I00
sg30
g4471
sg32
(imap.components.point
Point
p6000
(dp6001
g35
I19
sg36
I0
sbsba(imap.components.wall
Wall
p6002
(dp6003
g29
I00
sg30
g4471
sg32
(imap.components.point
Point
p6004
(dp6005
g35
I19
sg36
I1
sbsba(imap.components.wall
Wall
p6006
(dp6007
g29
I00
sg30
g4471
sg32
(imap.components.point
Point
p6008
(dp6009
g35
I19
sg36
I2
sbsba(imap.components.wall
Wall
p6010
(dp6011
g29
I00
sg30
g4471
sg32
(imap.components.point
Point
p6012
(dp6013
g35
I19
sg36
I3
sbsba(imap.components.wall
Wall
p6014
(dp6015
g29
I00
sg30
g4471
sg32
(imap.components.point
Point
p6016
(dp6017
g35
I19
sg36
I4
sbsba(imap.components.wall
Wall
p6018
(dp6019
g29
I00
sg30
g4471
sg32
(imap.components.point
Point
p6020
(dp6021
g35
I19
sg36
I5
sbsba(imap.components.wall
Wall
p6022
(dp6023
g29
I00
sg30
g4471
sg32
(imap.components.point
Point
p6024
(dp6025
g35
I19
sg36
I6
sbsba(imap.components.wall
Wall
p6026
(dp6027
g29
I00
sg30
g4471
sg32
(imap.components.point
Point
p6028
(dp6029
g35
I19
sg36
I7
sbsba(imap.components.wall
Wall
p6030
(dp6031
g29
I00
sg30
g4471
sg32
(imap.components.point
Point
p6032
(dp6033
g35
I19
sg36
I8
sbsba(imap.components.wall
Wall
p6034
(dp6035
g29
I00
sg30
g4471
sg32
(imap.components.point
Point
p6036
(dp6037
g35
I19
sg36
I9
sbsba(imap.components.wall
Wall
p6038
(dp6039
g29
I00
sg30
g4471
sg32
(imap.components.point
Point
p6040
(dp6041
g35
I19
sg36
I10
sbsba(imap.components.wall
Wall
p6042
(dp6043
g29
I00
sg30
g4471
sg32
(imap.components.point
Point
p6044
(dp6045
g35
I19
sg36
I11
sbsba(imap.components.wall
Wall
p6046
(dp6047
g29
I00
sg30
g4471
sg32
(imap.components.point
Point
p6048
(dp6049
g35
I19
sg36
I12
sbsba(imap.components.wall
Wall
p6050
(dp6051
g29
I00
sg30
g4471
sg32
(imap.components.point
Point
p6052
(dp6053
g35
I19
sg36
I13
sbsba(imap.components.wall
Wall
p6054
(dp6055
g29
I00
sg30
g4471
sg32
(imap.components.point
Point
p6056
(dp6057
g35
I19
sg36
I14
sbsba(imap.components.wall
Wall
p6058
(dp6059
g29
I00
sg30
g4471
sg32
(imap.components.point
Point
p6060
(dp6061
g35
I19
sg36
I15
sbsba(imap.components.wall
Wall
p6062
(dp6063
g29
I00
sg30
g4471
sg32
(imap.components.point
Point
p6064
(dp6065
g35
I19
sg36
I16
sbsba(imap.components.wall
Wall
p6066
(dp6067
g29
I00
sg30
g4471
sg32
(imap.components.point
Point
p6068
(dp6069
g35
I19
sg36
I17
sbsba(imap.components.wall
Wall
p6070
(dp6071
g29
I00
sg30
g4471
sg32
(imap.components.point
Point
p6072
(dp6073
g35
I19
sg36
I18
sbsba(imap.components.wall
Wall
p6074
(dp6075
g29
I00
sg30
g4471
sg32
(imap.components.point
Point
p6076
(dp6077
g35
I19
sg36
I19
sbsbasbsg4457
g4458
sbsssb.